
guest.bin:     file format elf64-littleriscv


Disassembly of section .text:

0000000080000000 <_start>:
    80000000:	00043117          	auipc	sp,0x43
    80000004:	00010113          	mv	sp,sp
    80000008:	00012097          	auipc	ra,0x12
    8000000c:	9b2080e7          	jalr	-1614(ra) # 800119ba <rust_main>
	...

0000000080001000 <__alltraps>:
    80001000:	14011173          	csrrw	sp,sscratch,sp
    80001004:	e406                	sd	ra,8(sp)
    80001006:	ec0e                	sd	gp,24(sp)
    80001008:	f416                	sd	t0,40(sp)
    8000100a:	f81a                	sd	t1,48(sp)
    8000100c:	fc1e                	sd	t2,56(sp)
    8000100e:	e0a2                	sd	s0,64(sp)
    80001010:	e4a6                	sd	s1,72(sp)
    80001012:	e8aa                	sd	a0,80(sp)
    80001014:	ecae                	sd	a1,88(sp)
    80001016:	f0b2                	sd	a2,96(sp)
    80001018:	f4b6                	sd	a3,104(sp)
    8000101a:	f8ba                	sd	a4,112(sp)
    8000101c:	fcbe                	sd	a5,120(sp)
    8000101e:	e142                	sd	a6,128(sp)
    80001020:	e546                	sd	a7,136(sp)
    80001022:	e94a                	sd	s2,144(sp)
    80001024:	ed4e                	sd	s3,152(sp)
    80001026:	f152                	sd	s4,160(sp)
    80001028:	f556                	sd	s5,168(sp)
    8000102a:	f95a                	sd	s6,176(sp)
    8000102c:	fd5e                	sd	s7,184(sp)
    8000102e:	e1e2                	sd	s8,192(sp)
    80001030:	e5e6                	sd	s9,200(sp)
    80001032:	e9ea                	sd	s10,208(sp)
    80001034:	edee                	sd	s11,216(sp)
    80001036:	f1f2                	sd	t3,224(sp)
    80001038:	f5f6                	sd	t4,232(sp)
    8000103a:	f9fa                	sd	t5,240(sp)
    8000103c:	fdfe                	sd	t6,248(sp)
    8000103e:	100022f3          	csrr	t0,sstatus
    80001042:	14102373          	csrr	t1,sepc
    80001046:	e216                	sd	t0,256(sp)
    80001048:	e61a                	sd	t1,264(sp)
    8000104a:	140023f3          	csrr	t2,sscratch
    8000104e:	e81e                	sd	t2,16(sp)
    80001050:	62d2                	ld	t0,272(sp)
    80001052:	7312                	ld	t1,288(sp)
    80001054:	6172                	ld	sp,280(sp)
    80001056:	18029073          	csrw	satp,t0
    8000105a:	12000073          	sfence.vma
    8000105e:	8302                	jr	t1

0000000080001060 <__restore>:
    80001060:	18059073          	csrw	satp,a1
    80001064:	12000073          	sfence.vma
    80001068:	14051073          	csrw	sscratch,a0
    8000106c:	812a                	mv	sp,a0
    8000106e:	6292                	ld	t0,256(sp)
    80001070:	6332                	ld	t1,264(sp)
    80001072:	10029073          	csrw	sstatus,t0
    80001076:	14131073          	csrw	sepc,t1
    8000107a:	60a2                	ld	ra,8(sp)
    8000107c:	61e2                	ld	gp,24(sp)
    8000107e:	72a2                	ld	t0,40(sp)
    80001080:	7342                	ld	t1,48(sp)
    80001082:	73e2                	ld	t2,56(sp)
    80001084:	6406                	ld	s0,64(sp)
    80001086:	64a6                	ld	s1,72(sp)
    80001088:	6546                	ld	a0,80(sp)
    8000108a:	65e6                	ld	a1,88(sp)
    8000108c:	7606                	ld	a2,96(sp)
    8000108e:	76a6                	ld	a3,104(sp)
    80001090:	7746                	ld	a4,112(sp)
    80001092:	77e6                	ld	a5,120(sp)
    80001094:	680a                	ld	a6,128(sp)
    80001096:	68aa                	ld	a7,136(sp)
    80001098:	694a                	ld	s2,144(sp)
    8000109a:	69ea                	ld	s3,152(sp)
    8000109c:	7a0a                	ld	s4,160(sp)
    8000109e:	7aaa                	ld	s5,168(sp)
    800010a0:	7b4a                	ld	s6,176(sp)
    800010a2:	7bea                	ld	s7,184(sp)
    800010a4:	6c0e                	ld	s8,192(sp)
    800010a6:	6cae                	ld	s9,200(sp)
    800010a8:	6d4e                	ld	s10,208(sp)
    800010aa:	6dee                	ld	s11,216(sp)
    800010ac:	7e0e                	ld	t3,224(sp)
    800010ae:	7eae                	ld	t4,232(sp)
    800010b0:	7f4e                	ld	t5,240(sp)
    800010b2:	7fee                	ld	t6,248(sp)
    800010b4:	6142                	ld	sp,16(sp)
    800010b6:	10200073          	sret
    800010ba:	0001                	nop

00000000800010bc <__alltraps_k>:
    800010bc:	716d                	addi	sp,sp,-272
    800010be:	e406                	sd	ra,8(sp)
    800010c0:	ec0e                	sd	gp,24(sp)
    800010c2:	f416                	sd	t0,40(sp)
    800010c4:	f81a                	sd	t1,48(sp)
    800010c6:	fc1e                	sd	t2,56(sp)
    800010c8:	e0a2                	sd	s0,64(sp)
    800010ca:	e4a6                	sd	s1,72(sp)
    800010cc:	e8aa                	sd	a0,80(sp)
    800010ce:	ecae                	sd	a1,88(sp)
    800010d0:	f0b2                	sd	a2,96(sp)
    800010d2:	f4b6                	sd	a3,104(sp)
    800010d4:	f8ba                	sd	a4,112(sp)
    800010d6:	fcbe                	sd	a5,120(sp)
    800010d8:	e142                	sd	a6,128(sp)
    800010da:	e546                	sd	a7,136(sp)
    800010dc:	e94a                	sd	s2,144(sp)
    800010de:	ed4e                	sd	s3,152(sp)
    800010e0:	f152                	sd	s4,160(sp)
    800010e2:	f556                	sd	s5,168(sp)
    800010e4:	f95a                	sd	s6,176(sp)
    800010e6:	fd5e                	sd	s7,184(sp)
    800010e8:	e1e2                	sd	s8,192(sp)
    800010ea:	e5e6                	sd	s9,200(sp)
    800010ec:	e9ea                	sd	s10,208(sp)
    800010ee:	edee                	sd	s11,216(sp)
    800010f0:	f1f2                	sd	t3,224(sp)
    800010f2:	f5f6                	sd	t4,232(sp)
    800010f4:	f9fa                	sd	t5,240(sp)
    800010f6:	fdfe                	sd	t6,248(sp)
    800010f8:	100022f3          	csrr	t0,sstatus
    800010fc:	14102373          	csrr	t1,sepc
    80001100:	e216                	sd	t0,256(sp)
    80001102:	e61a                	sd	t1,264(sp)
    80001104:	850a                	mv	a0,sp
    80001106:	140023f3          	csrr	t2,sscratch
    8000110a:	9382                	jalr	t2

000000008000110c <__restore_k>:
    8000110c:	6292                	ld	t0,256(sp)
    8000110e:	6332                	ld	t1,264(sp)
    80001110:	10029073          	csrw	sstatus,t0
    80001114:	14131073          	csrw	sepc,t1
    80001118:	60a2                	ld	ra,8(sp)
    8000111a:	61e2                	ld	gp,24(sp)
    8000111c:	72a2                	ld	t0,40(sp)
    8000111e:	7342                	ld	t1,48(sp)
    80001120:	73e2                	ld	t2,56(sp)
    80001122:	6406                	ld	s0,64(sp)
    80001124:	64a6                	ld	s1,72(sp)
    80001126:	6546                	ld	a0,80(sp)
    80001128:	65e6                	ld	a1,88(sp)
    8000112a:	7606                	ld	a2,96(sp)
    8000112c:	76a6                	ld	a3,104(sp)
    8000112e:	7746                	ld	a4,112(sp)
    80001130:	77e6                	ld	a5,120(sp)
    80001132:	680a                	ld	a6,128(sp)
    80001134:	68aa                	ld	a7,136(sp)
    80001136:	694a                	ld	s2,144(sp)
    80001138:	69ea                	ld	s3,152(sp)
    8000113a:	7a0a                	ld	s4,160(sp)
    8000113c:	7aaa                	ld	s5,168(sp)
    8000113e:	7b4a                	ld	s6,176(sp)
    80001140:	7bea                	ld	s7,184(sp)
    80001142:	6c0e                	ld	s8,192(sp)
    80001144:	6cae                	ld	s9,200(sp)
    80001146:	6d4e                	ld	s10,208(sp)
    80001148:	6dee                	ld	s11,216(sp)
    8000114a:	7e0e                	ld	t3,224(sp)
    8000114c:	7eae                	ld	t4,232(sp)
    8000114e:	7f4e                	ld	t5,240(sp)
    80001150:	7fee                	ld	t6,248(sp)
    80001152:	6151                	addi	sp,sp,272
    80001154:	10200073          	sret
	...

0000000080002000 <_ZN5alloc11collections5btree4node210Handle$LT$alloc..collections..btree..node..NodeRef$LT$alloc..collections..btree..node..marker..Mut$C$K$C$V$C$alloc..collections..btree..node..marker..Leaf$GT$$C$alloc..collections..btree..node..marker..Edge$GT$16insert_recursing17h438a7af9eea8f281E>:
    80002000:	7131                	addi	sp,sp,-192
    80002002:	fd06                	sd	ra,184(sp)
    80002004:	f922                	sd	s0,176(sp)
    80002006:	f526                	sd	s1,168(sp)
    80002008:	f14a                	sd	s2,160(sp)
    8000200a:	ed4e                	sd	s3,152(sp)
    8000200c:	e952                	sd	s4,144(sp)
    8000200e:	e556                	sd	s5,136(sp)
    80002010:	e15a                	sd	s6,128(sp)
    80002012:	fcde                	sd	s7,120(sp)
    80002014:	f8e2                	sd	s8,112(sp)
    80002016:	f4e6                	sd	s9,104(sp)
    80002018:	f0ea                	sd	s10,96(sp)
    8000201a:	ecee                	sd	s11,88(sp)
    8000201c:	0180                	addi	s0,sp,192
    8000201e:	872e                	mv	a4,a1
    80002020:	0085bd83          	ld	s11,8(a1)
    80002024:	0badd483          	lhu	s1,186(s11)
    80002028:	698c                	ld	a1,16(a1)
    8000202a:	47ad                	li	a5,11
    8000202c:	8a36                	mv	s4,a3
    8000202e:	89b2                	mv	s3,a2
    80002030:	8d2a                	mv	s10,a0
    80002032:	06f4f363          	bgeu	s1,a5,80002098 <_ZN5alloc11collections5btree4node210Handle$LT$alloc..collections..btree..node..NodeRef$LT$alloc..collections..btree..node..marker..Mut$C$K$C$V$C$alloc..collections..btree..node..marker..Leaf$GT$$C$alloc..collections..btree..node..marker..Edge$GT$16insert_recursing17h438a7af9eea8f281E+0x98>
    80002036:	00158513          	addi	a0,a1,1
    8000203a:	00359a93          	slli	s5,a1,0x3
    8000203e:	02a4ee63          	bltu	s1,a0,8000207a <_ZN5alloc11collections5btree4node210Handle$LT$alloc..collections..btree..node..NodeRef$LT$alloc..collections..btree..node..marker..Mut$C$K$C$V$C$alloc..collections..btree..node..marker..Leaf$GT$$C$alloc..collections..btree..node..marker..Edge$GT$16insert_recursing17h438a7af9eea8f281E+0x7a>
    80002042:	008d8693          	addi	a3,s11,8
    80002046:	01568633          	add	a2,a3,s5
    8000204a:	00351b13          	slli	s6,a0,0x3
    8000204e:	01668533          	add	a0,a3,s6
    80002052:	40b485b3          	sub	a1,s1,a1
    80002056:	00359913          	slli	s2,a1,0x3
    8000205a:	85b2                	mv	a1,a2
    8000205c:	864a                	mv	a2,s2
    8000205e:	00025097          	auipc	ra,0x25
    80002062:	bba080e7          	jalr	-1094(ra) # 80026c18 <memmove>
    80002066:	060d8513          	addi	a0,s11,96
    8000206a:	015505b3          	add	a1,a0,s5
    8000206e:	955a                	add	a0,a0,s6
    80002070:	864a                	mv	a2,s2
    80002072:	00025097          	auipc	ra,0x25
    80002076:	ba6080e7          	jalr	-1114(ra) # 80026c18 <memmove>
    8000207a:	015d8533          	add	a0,s11,s5
    8000207e:	01353423          	sd	s3,8(a0)
    80002082:	0014859b          	addiw	a1,s1,1
    80002086:	06050613          	addi	a2,a0,96
    8000208a:	07453023          	sd	s4,96(a0)
    8000208e:	0abd9d23          	sh	a1,186(s11)
    80002092:	000d3423          	sd	zero,8(s10)
    80002096:	a909                	j	800024a8 <_ZN5alloc11collections5btree4node210Handle$LT$alloc..collections..btree..node..NodeRef$LT$alloc..collections..btree..node..marker..Mut$C$K$C$V$C$alloc..collections..btree..node..marker..Leaf$GT$$C$alloc..collections..btree..node..marker..Edge$GT$16insert_recursing17h438a7af9eea8f281E+0x4a8>
    80002098:	00073b03          	ld	s6,0(a4)
    8000209c:	f8040513          	addi	a0,s0,-128
    800020a0:	00022097          	auipc	ra,0x22
    800020a4:	810080e7          	jalr	-2032(ra) # 800238b0 <_ZN5alloc11collections5btree4node10splitpoint17hab968fab914292cdE>
    800020a8:	f8043b83          	ld	s7,-128(s0)
    800020ac:	f8843c03          	ld	s8,-120(s0)
    800020b0:	f9043903          	ld	s2,-112(s0)
    800020b4:	0c000513          	li	a0,192
    800020b8:	45a1                	li	a1,8
    800020ba:	00019097          	auipc	ra,0x19
    800020be:	100080e7          	jalr	256(ra) # 8001b1ba <__rust_alloc>
    800020c2:	46050e63          	beqz	a0,8000253e <.LBB19_55+0x14>
    800020c6:	87aa                	mv	a5,a0
    800020c8:	00053023          	sd	zero,0(a0)
    800020cc:	0badd603          	lhu	a2,186(s11)
    800020d0:	fffbc513          	not	a0,s7
    800020d4:	9532                	add	a0,a0,a2
    800020d6:	45b1                	li	a1,12
    800020d8:	0aa79d23          	sh	a0,186(a5)
    800020dc:	40b57663          	bgeu	a0,a1,800024e8 <.LBB19_52>
    800020e0:	f7343023          	sd	s3,-160(s0)
    800020e4:	001b8593          	addi	a1,s7,1
    800020e8:	8e0d                	sub	a2,a2,a1
    800020ea:	3ea61063          	bne	a2,a0,800024ca <.LBB19_50>
    800020ee:	89d2                	mv	s3,s4
    800020f0:	008d8693          	addi	a3,s11,8
    800020f4:	003b9613          	slli	a2,s7,0x3
    800020f8:	00c68733          	add	a4,a3,a2
    800020fc:	6318                	ld	a4,0(a4)
    800020fe:	f6e43423          	sd	a4,-152(s0)
    80002102:	060d8a93          	addi	s5,s11,96
    80002106:	9656                	add	a2,a2,s5
    80002108:	6210                	ld	a2,0(a2)
    8000210a:	f6c43823          	sd	a2,-144(s0)
    8000210e:	00878613          	addi	a2,a5,8
    80002112:	00359493          	slli	s1,a1,0x3
    80002116:	009685b3          	add	a1,a3,s1
    8000211a:	8a3e                	mv	s4,a5
    8000211c:	00351c93          	slli	s9,a0,0x3
    80002120:	8532                	mv	a0,a2
    80002122:	8666                	mv	a2,s9
    80002124:	00025097          	auipc	ra,0x25
    80002128:	b0c080e7          	jalr	-1268(ra) # 80026c30 <memcpy>
    8000212c:	f7443c23          	sd	s4,-136(s0)
    80002130:	060a0513          	addi	a0,s4,96
    80002134:	009a85b3          	add	a1,s5,s1
    80002138:	8666                	mv	a2,s9
    8000213a:	00025097          	auipc	ra,0x25
    8000213e:	af6080e7          	jalr	-1290(ra) # 80026c30 <memcpy>
    80002142:	0b7d9d23          	sh	s7,186(s11)
    80002146:	8cee                	mv	s9,s11
    80002148:	000c0463          	beqz	s8,80002150 <_ZN5alloc11collections5btree4node210Handle$LT$alloc..collections..btree..node..NodeRef$LT$alloc..collections..btree..node..marker..Mut$C$K$C$V$C$alloc..collections..btree..node..marker..Leaf$GT$$C$alloc..collections..btree..node..marker..Edge$GT$16insert_recursing17h438a7af9eea8f281E+0x150>
    8000214c:	f7843c83          	ld	s9,-136(s0)
    80002150:	f5a43823          	sd	s10,-176(s0)
    80002154:	0bacdb83          	lhu	s7,186(s9)
    80002158:	008c8c13          	addi	s8,s9,8
    8000215c:	00190513          	addi	a0,s2,1
    80002160:	00391a93          	slli	s5,s2,0x3
    80002164:	00abf563          	bgeu	s7,a0,8000216e <_ZN5alloc11collections5btree4node210Handle$LT$alloc..collections..btree..node..NodeRef$LT$alloc..collections..btree..node..marker..Mut$C$K$C$V$C$alloc..collections..btree..node..marker..Leaf$GT$$C$alloc..collections..btree..node..marker..Edge$GT$16insert_recursing17h438a7af9eea8f281E+0x16e>
    80002168:	060c8493          	addi	s1,s9,96
    8000216c:	a81d                	j	800021a2 <_ZN5alloc11collections5btree4node210Handle$LT$alloc..collections..btree..node..NodeRef$LT$alloc..collections..btree..node..marker..Mut$C$K$C$V$C$alloc..collections..btree..node..marker..Leaf$GT$$C$alloc..collections..btree..node..marker..Edge$GT$16insert_recursing17h438a7af9eea8f281E+0x1a2>
    8000216e:	015c05b3          	add	a1,s8,s5
    80002172:	00351d13          	slli	s10,a0,0x3
    80002176:	01ac0533          	add	a0,s8,s10
    8000217a:	412b8633          	sub	a2,s7,s2
    8000217e:	00361913          	slli	s2,a2,0x3
    80002182:	864a                	mv	a2,s2
    80002184:	00025097          	auipc	ra,0x25
    80002188:	a94080e7          	jalr	-1388(ra) # 80026c18 <memmove>
    8000218c:	060c8493          	addi	s1,s9,96
    80002190:	015485b3          	add	a1,s1,s5
    80002194:	01a48533          	add	a0,s1,s10
    80002198:	864a                	mv	a2,s2
    8000219a:	00025097          	auipc	ra,0x25
    8000219e:	a7e080e7          	jalr	-1410(ra) # 80026c18 <memmove>
    800021a2:	015c0533          	add	a0,s8,s5
    800021a6:	f6043583          	ld	a1,-160(s0)
    800021aa:	e10c                	sd	a1,0(a0)
    800021ac:	001b851b          	addiw	a0,s7,1
    800021b0:	015485b3          	add	a1,s1,s5
    800021b4:	0135b023          	sd	s3,0(a1)
    800021b8:	0aac9d23          	sh	a0,186(s9)
    800021bc:	000db503          	ld	a0,0(s11)
    800021c0:	01548633          	add	a2,s1,s5
    800021c4:	1e050763          	beqz	a0,800023b2 <_ZN5alloc11collections5btree4node210Handle$LT$alloc..collections..btree..node..NodeRef$LT$alloc..collections..btree..node..marker..Mut$C$K$C$V$C$alloc..collections..btree..node..marker..Leaf$GT$$C$alloc..collections..btree..node..marker..Edge$GT$16insert_recursing17h438a7af9eea8f281E+0x3b2>
    800021c8:	f4c43423          	sd	a2,-184(s0)
    800021cc:	4681                	li	a3,0
    800021ce:	f7843583          	ld	a1,-136(s0)
    800021d2:	a839                	j	800021f0 <_ZN5alloc11collections5btree4node210Handle$LT$alloc..collections..btree..node..NodeRef$LT$alloc..collections..btree..node..marker..Mut$C$K$C$V$C$alloc..collections..btree..node..marker..Leaf$GT$$C$alloc..collections..btree..node..marker..Edge$GT$16insert_recursing17h438a7af9eea8f281E+0x1f0>
    800021d4:	000d3503          	ld	a0,0(s10)
    800021d8:	8662                	mv	a2,s8
    800021da:	f7843823          	sd	s8,-144(s0)
    800021de:	f6043c03          	ld	s8,-160(s0)
    800021e2:	f7843423          	sd	s8,-152(s0)
    800021e6:	85ce                	mv	a1,s3
    800021e8:	8b36                	mv	s6,a3
    800021ea:	8dea                	mv	s11,s10
    800021ec:	24050363          	beqz	a0,80002432 <_ZN5alloc11collections5btree4node210Handle$LT$alloc..collections..btree..node..NodeRef$LT$alloc..collections..btree..node..marker..Mut$C$K$C$V$C$alloc..collections..btree..node..marker..Leaf$GT$$C$alloc..collections..btree..node..marker..Edge$GT$16insert_recursing17h438a7af9eea8f281E+0x432>
    800021f0:	30db1663          	bne	s6,a3,800024fc <.LBB19_53>
    800021f4:	8d2a                	mv	s10,a0
    800021f6:	f6b43c23          	sd	a1,-136(s0)
    800021fa:	0ba55c03          	lhu	s8,186(a0)
    800021fe:	0b8dd483          	lhu	s1,184(s11)
    80002202:	452d                	li	a0,11
    80002204:	1aac6f63          	bltu	s8,a0,800023c2 <_ZN5alloc11collections5btree4node210Handle$LT$alloc..collections..btree..node..NodeRef$LT$alloc..collections..btree..node..marker..Mut$C$K$C$V$C$alloc..collections..btree..node..marker..Leaf$GT$$C$alloc..collections..btree..node..marker..Edge$GT$16insert_recursing17h438a7af9eea8f281E+0x3c2>
    80002208:	f8040513          	addi	a0,s0,-128
    8000220c:	85a6                	mv	a1,s1
    8000220e:	00021097          	auipc	ra,0x21
    80002212:	6a2080e7          	jalr	1698(ra) # 800238b0 <_ZN5alloc11collections5btree4node10splitpoint17hab968fab914292cdE>
    80002216:	f8043903          	ld	s2,-128(s0)
    8000221a:	f8843d83          	ld	s11,-120(s0)
    8000221e:	f9043c83          	ld	s9,-112(s0)
    80002222:	0bad5b83          	lhu	s7,186(s10)
    80002226:	12000513          	li	a0,288
    8000222a:	45a1                	li	a1,8
    8000222c:	00019097          	auipc	ra,0x19
    80002230:	f8e080e7          	jalr	-114(ra) # 8001b1ba <__rust_alloc>
    80002234:	2e050363          	beqz	a0,8000251a <.LBB19_54+0x16>
    80002238:	89aa                	mv	s3,a0
    8000223a:	00053023          	sd	zero,0(a0)
    8000223e:	0bad5603          	lhu	a2,186(s10)
    80002242:	fff94513          	not	a0,s2
    80002246:	9532                	add	a0,a0,a2
    80002248:	0aa99d23          	sh	a0,186(s3)
    8000224c:	45b1                	li	a1,12
    8000224e:	28b57d63          	bgeu	a0,a1,800024e8 <.LBB19_52>
    80002252:	00190593          	addi	a1,s2,1
    80002256:	8e0d                	sub	a2,a2,a1
    80002258:	26a61963          	bne	a2,a0,800024ca <.LBB19_50>
    8000225c:	008d0693          	addi	a3,s10,8
    80002260:	00391613          	slli	a2,s2,0x3
    80002264:	00c68733          	add	a4,a3,a2
    80002268:	6318                	ld	a4,0(a4)
    8000226a:	f6e43023          	sd	a4,-160(s0)
    8000226e:	060d0493          	addi	s1,s10,96
    80002272:	9626                	add	a2,a2,s1
    80002274:	00063c03          	ld	s8,0(a2)
    80002278:	00898613          	addi	a2,s3,8
    8000227c:	00359a93          	slli	s5,a1,0x3
    80002280:	015685b3          	add	a1,a3,s5
    80002284:	00351a13          	slli	s4,a0,0x3
    80002288:	8532                	mv	a0,a2
    8000228a:	8652                	mv	a2,s4
    8000228c:	00025097          	auipc	ra,0x25
    80002290:	9a4080e7          	jalr	-1628(ra) # 80026c30 <memcpy>
    80002294:	06098513          	addi	a0,s3,96
    80002298:	015485b3          	add	a1,s1,s5
    8000229c:	8652                	mv	a2,s4
    8000229e:	00025097          	auipc	ra,0x25
    800022a2:	992080e7          	jalr	-1646(ra) # 80026c30 <memcpy>
    800022a6:	0b2d1d23          	sh	s2,186(s10)
    800022aa:	0ba9d483          	lhu	s1,186(s3)
    800022ae:	00148513          	addi	a0,s1,1
    800022b2:	45b1                	li	a1,12
    800022b4:	26b4fb63          	bgeu	s1,a1,8000252a <.LBB19_55>
    800022b8:	412b8633          	sub	a2,s7,s2
    800022bc:	20a61763          	bne	a2,a0,800024ca <.LBB19_50>
    800022c0:	001b0513          	addi	a0,s6,1
    800022c4:	f4a43c23          	sd	a0,-168(s0)
    800022c8:	015d0533          	add	a0,s10,s5
    800022cc:	0c050593          	addi	a1,a0,192
    800022d0:	0c098513          	addi	a0,s3,192
    800022d4:	060e                	slli	a2,a2,0x3
    800022d6:	00025097          	auipc	ra,0x25
    800022da:	95a080e7          	jalr	-1702(ra) # 80026c30 <memcpy>
    800022de:	4501                	li	a0,0
    800022e0:	00351593          	slli	a1,a0,0x3
    800022e4:	95ce                	add	a1,a1,s3
    800022e6:	61ec                	ld	a1,192(a1)
    800022e8:	00953633          	sltu	a2,a0,s1
    800022ec:	00164693          	xori	a3,a2,1
    800022f0:	0aa59c23          	sh	a0,184(a1)
    800022f4:	9532                	add	a0,a0,a2
    800022f6:	00a4b633          	sltu	a2,s1,a0
    800022fa:	8e55                	or	a2,a2,a3
    800022fc:	0135b023          	sd	s3,0(a1)
    80002300:	d265                	beqz	a2,800022e0 <_ZN5alloc11collections5btree4node210Handle$LT$alloc..collections..btree..node..NodeRef$LT$alloc..collections..btree..node..marker..Mut$C$K$C$V$C$alloc..collections..btree..node..marker..Leaf$GT$$C$alloc..collections..btree..node..marker..Edge$GT$16insert_recursing17h438a7af9eea8f281E+0x2e0>
    80002302:	8b6a                	mv	s6,s10
    80002304:	000d8363          	beqz	s11,8000230a <_ZN5alloc11collections5btree4node210Handle$LT$alloc..collections..btree..node..NodeRef$LT$alloc..collections..btree..node..marker..Mut$C$K$C$V$C$alloc..collections..btree..node..marker..Leaf$GT$$C$alloc..collections..btree..node..marker..Edge$GT$16insert_recursing17h438a7af9eea8f281E+0x30a>
    80002308:	8b4e                	mv	s6,s3
    8000230a:	0bab5d83          	lhu	s11,186(s6)
    8000230e:	001c8b93          	addi	s7,s9,1
    80002312:	003c9493          	slli	s1,s9,0x3
    80002316:	003b9a93          	slli	s5,s7,0x3
    8000231a:	419d8933          	sub	s2,s11,s9
    8000231e:	037de863          	bltu	s11,s7,8000234e <_ZN5alloc11collections5btree4node210Handle$LT$alloc..collections..btree..node..NodeRef$LT$alloc..collections..btree..node..marker..Mut$C$K$C$V$C$alloc..collections..btree..node..marker..Leaf$GT$$C$alloc..collections..btree..node..marker..Edge$GT$16insert_recursing17h438a7af9eea8f281E+0x34e>
    80002322:	008b0513          	addi	a0,s6,8
    80002326:	009505b3          	add	a1,a0,s1
    8000232a:	9556                	add	a0,a0,s5
    8000232c:	00391a13          	slli	s4,s2,0x3
    80002330:	8652                	mv	a2,s4
    80002332:	00025097          	auipc	ra,0x25
    80002336:	8e6080e7          	jalr	-1818(ra) # 80026c18 <memmove>
    8000233a:	060b0513          	addi	a0,s6,96
    8000233e:	009505b3          	add	a1,a0,s1
    80002342:	9556                	add	a0,a0,s5
    80002344:	8652                	mv	a2,s4
    80002346:	00025097          	auipc	ra,0x25
    8000234a:	8d2080e7          	jalr	-1838(ra) # 80026c18 <memmove>
    8000234e:	94da                	add	s1,s1,s6
    80002350:	f6843503          	ld	a0,-152(s0)
    80002354:	e488                	sd	a0,8(s1)
    80002356:	002d8a13          	addi	s4,s11,2
    8000235a:	002c8513          	addi	a0,s9,2
    8000235e:	f7043583          	ld	a1,-144(s0)
    80002362:	f0ac                	sd	a1,96(s1)
    80002364:	01457e63          	bgeu	a0,s4,80002380 <_ZN5alloc11collections5btree4node210Handle$LT$alloc..collections..btree..node..NodeRef$LT$alloc..collections..btree..node..marker..Mut$C$K$C$V$C$alloc..collections..btree..node..marker..Leaf$GT$$C$alloc..collections..btree..node..marker..Edge$GT$16insert_recursing17h438a7af9eea8f281E+0x380>
    80002368:	0c0b0613          	addi	a2,s6,192
    8000236c:	015605b3          	add	a1,a2,s5
    80002370:	050e                	slli	a0,a0,0x3
    80002372:	9532                	add	a0,a0,a2
    80002374:	00391613          	slli	a2,s2,0x3
    80002378:	00025097          	auipc	ra,0x25
    8000237c:	8a0080e7          	jalr	-1888(ra) # 80026c18 <memmove>
    80002380:	001d8513          	addi	a0,s11,1
    80002384:	015b05b3          	add	a1,s6,s5
    80002388:	f7843603          	ld	a2,-136(s0)
    8000238c:	e1f0                	sd	a2,192(a1)
    8000238e:	0aab1d23          	sh	a0,186(s6)
    80002392:	f5843683          	ld	a3,-168(s0)
    80002396:	e34bffe3          	bgeu	s7,s4,800021d4 <_ZN5alloc11collections5btree4node210Handle$LT$alloc..collections..btree..node..NodeRef$LT$alloc..collections..btree..node..marker..Mut$C$K$C$V$C$alloc..collections..btree..node..marker..Leaf$GT$$C$alloc..collections..btree..node..marker..Edge$GT$16insert_recursing17h438a7af9eea8f281E+0x1d4>
    8000239a:	0c848593          	addi	a1,s1,200
    8000239e:	6190                	ld	a2,0(a1)
    800023a0:	0c85                	addi	s9,s9,1
    800023a2:	01663023          	sd	s6,0(a2)
    800023a6:	0b961c23          	sh	s9,184(a2)
    800023aa:	05a1                	addi	a1,a1,8
    800023ac:	ff9519e3          	bne	a0,s9,8000239e <_ZN5alloc11collections5btree4node210Handle$LT$alloc..collections..btree..node..NodeRef$LT$alloc..collections..btree..node..marker..Mut$C$K$C$V$C$alloc..collections..btree..node..marker..Leaf$GT$$C$alloc..collections..btree..node..marker..Edge$GT$16insert_recursing17h438a7af9eea8f281E+0x39e>
    800023b0:	b515                	j	800021d4 <_ZN5alloc11collections5btree4node210Handle$LT$alloc..collections..btree..node..NodeRef$LT$alloc..collections..btree..node..marker..Mut$C$K$C$V$C$alloc..collections..btree..node..marker..Leaf$GT$$C$alloc..collections..btree..node..marker..Edge$GT$16insert_recursing17h438a7af9eea8f281E+0x1d4>
    800023b2:	4681                	li	a3,0
    800023b4:	f7843983          	ld	s3,-136(s0)
    800023b8:	f7043c03          	ld	s8,-144(s0)
    800023bc:	f6843503          	ld	a0,-152(s0)
    800023c0:	a8bd                	j	8000243e <_ZN5alloc11collections5btree4node210Handle$LT$alloc..collections..btree..node..NodeRef$LT$alloc..collections..btree..node..marker..Mut$C$K$C$V$C$alloc..collections..btree..node..marker..Leaf$GT$$C$alloc..collections..btree..node..marker..Edge$GT$16insert_recursing17h438a7af9eea8f281E+0x43e>
    800023c2:	001c0913          	addi	s2,s8,1
    800023c6:	00148c93          	addi	s9,s1,1
    800023ca:	00349b93          	slli	s7,s1,0x3
    800023ce:	003c9a93          	slli	s5,s9,0x3
    800023d2:	0984f563          	bgeu	s1,s8,8000245c <_ZN5alloc11collections5btree4node210Handle$LT$alloc..collections..btree..node..NodeRef$LT$alloc..collections..btree..node..marker..Mut$C$K$C$V$C$alloc..collections..btree..node..marker..Leaf$GT$$C$alloc..collections..btree..node..marker..Edge$GT$16insert_recursing17h438a7af9eea8f281E+0x45c>
    800023d6:	008d0513          	addi	a0,s10,8
    800023da:	01750a33          	add	s4,a0,s7
    800023de:	9556                	add	a0,a0,s5
    800023e0:	409c05b3          	sub	a1,s8,s1
    800023e4:	00359993          	slli	s3,a1,0x3
    800023e8:	85d2                	mv	a1,s4
    800023ea:	864e                	mv	a2,s3
    800023ec:	00025097          	auipc	ra,0x25
    800023f0:	82c080e7          	jalr	-2004(ra) # 80026c18 <memmove>
    800023f4:	060d0513          	addi	a0,s10,96
    800023f8:	01750b33          	add	s6,a0,s7
    800023fc:	9556                	add	a0,a0,s5
    800023fe:	85da                	mv	a1,s6
    80002400:	864e                	mv	a2,s3
    80002402:	00025097          	auipc	ra,0x25
    80002406:	816080e7          	jalr	-2026(ra) # 80026c18 <memmove>
    8000240a:	f6843503          	ld	a0,-152(s0)
    8000240e:	00aa3023          	sd	a0,0(s4)
    80002412:	f7043503          	ld	a0,-144(s0)
    80002416:	00ab3023          	sd	a0,0(s6)
    8000241a:	0c0d0513          	addi	a0,s10,192
    8000241e:	015505b3          	add	a1,a0,s5
    80002422:	955e                	add	a0,a0,s7
    80002424:	0541                	addi	a0,a0,16
    80002426:	864e                	mv	a2,s3
    80002428:	00024097          	auipc	ra,0x24
    8000242c:	7f0080e7          	jalr	2032(ra) # 80026c18 <memmove>
    80002430:	a835                	j	8000246c <_ZN5alloc11collections5btree4node210Handle$LT$alloc..collections..btree..node..NodeRef$LT$alloc..collections..btree..node..marker..Mut$C$K$C$V$C$alloc..collections..btree..node..marker..Leaf$GT$$C$alloc..collections..btree..node..marker..Edge$GT$16insert_recursing17h438a7af9eea8f281E+0x46c>
    80002432:	8dea                	mv	s11,s10
    80002434:	8b36                	mv	s6,a3
    80002436:	8562                	mv	a0,s8
    80002438:	8c32                	mv	s8,a2
    8000243a:	f4843603          	ld	a2,-184(s0)
    8000243e:	f5043d03          	ld	s10,-176(s0)
    80002442:	016d3023          	sd	s6,0(s10)
    80002446:	01bd3423          	sd	s11,8(s10)
    8000244a:	00ad3823          	sd	a0,16(s10)
    8000244e:	018d3c23          	sd	s8,24(s10)
    80002452:	02dd3023          	sd	a3,32(s10)
    80002456:	033d3423          	sd	s3,40(s10)
    8000245a:	a0b9                	j	800024a8 <_ZN5alloc11collections5btree4node210Handle$LT$alloc..collections..btree..node..NodeRef$LT$alloc..collections..btree..node..marker..Mut$C$K$C$V$C$alloc..collections..btree..node..marker..Leaf$GT$$C$alloc..collections..btree..node..marker..Edge$GT$16insert_recursing17h438a7af9eea8f281E+0x4a8>
    8000245c:	017d0533          	add	a0,s10,s7
    80002460:	f6843583          	ld	a1,-152(s0)
    80002464:	e50c                	sd	a1,8(a0)
    80002466:	f7043583          	ld	a1,-144(s0)
    8000246a:	f12c                	sd	a1,96(a0)
    8000246c:	002c0513          	addi	a0,s8,2
    80002470:	015d05b3          	add	a1,s10,s5
    80002474:	f7843603          	ld	a2,-136(s0)
    80002478:	e1f0                	sd	a2,192(a1)
    8000247a:	0b2d1d23          	sh	s2,186(s10)
    8000247e:	00acff63          	bgeu	s9,a0,8000249c <_ZN5alloc11collections5btree4node210Handle$LT$alloc..collections..btree..node..NodeRef$LT$alloc..collections..btree..node..marker..Mut$C$K$C$V$C$alloc..collections..btree..node..marker..Leaf$GT$$C$alloc..collections..btree..node..marker..Edge$GT$16insert_recursing17h438a7af9eea8f281E+0x49c>
    80002482:	017d0533          	add	a0,s10,s7
    80002486:	0c850513          	addi	a0,a0,200
    8000248a:	610c                	ld	a1,0(a0)
    8000248c:	0485                	addi	s1,s1,1
    8000248e:	01a5b023          	sd	s10,0(a1)
    80002492:	0a959c23          	sh	s1,184(a1)
    80002496:	0521                	addi	a0,a0,8
    80002498:	fe9919e3          	bne	s2,s1,8000248a <_ZN5alloc11collections5btree4node210Handle$LT$alloc..collections..btree..node..NodeRef$LT$alloc..collections..btree..node..marker..Mut$C$K$C$V$C$alloc..collections..btree..node..marker..Leaf$GT$$C$alloc..collections..btree..node..marker..Edge$GT$16insert_recursing17h438a7af9eea8f281E+0x48a>
    8000249c:	f5043d03          	ld	s10,-176(s0)
    800024a0:	000d3423          	sd	zero,8(s10)
    800024a4:	f4843603          	ld	a2,-184(s0)
    800024a8:	02cd3823          	sd	a2,48(s10)
    800024ac:	70ea                	ld	ra,184(sp)
    800024ae:	744a                	ld	s0,176(sp)
    800024b0:	74aa                	ld	s1,168(sp)
    800024b2:	790a                	ld	s2,160(sp)
    800024b4:	69ea                	ld	s3,152(sp)
    800024b6:	6a4a                	ld	s4,144(sp)
    800024b8:	6aaa                	ld	s5,136(sp)
    800024ba:	6b0a                	ld	s6,128(sp)
    800024bc:	7be6                	ld	s7,120(sp)
    800024be:	7c46                	ld	s8,112(sp)
    800024c0:	7ca6                	ld	s9,104(sp)
    800024c2:	7d06                	ld	s10,96(sp)
    800024c4:	6de6                	ld	s11,88(sp)
    800024c6:	6129                	addi	sp,sp,192
    800024c8:	8082                	ret

00000000800024ca <.LBB19_50>:
    800024ca:	00025517          	auipc	a0,0x25
    800024ce:	d3650513          	addi	a0,a0,-714 # 80027200 <.Lanon.1896bb8148728528824850fc7e0824e2.14>

00000000800024d2 <.LBB19_51>:
    800024d2:	00025617          	auipc	a2,0x25
    800024d6:	d5660613          	addi	a2,a2,-682 # 80027228 <.Lanon.1896bb8148728528824850fc7e0824e2.15>
    800024da:	02800593          	li	a1,40
    800024de:	00021097          	auipc	ra,0x21
    800024e2:	548080e7          	jalr	1352(ra) # 80023a26 <_ZN4core9panicking5panic17h92f54f473578363dE>
	...

00000000800024e8 <.LBB19_52>:
    800024e8:	00025617          	auipc	a2,0x25
    800024ec:	d5860613          	addi	a2,a2,-680 # 80027240 <.Lanon.1896bb8148728528824850fc7e0824e2.16>
    800024f0:	45ad                	li	a1,11
    800024f2:	00023097          	auipc	ra,0x23
    800024f6:	07c080e7          	jalr	124(ra) # 8002556e <_ZN4core5slice5index24slice_end_index_len_fail17h5d1e1d044f43082eE>
	...

00000000800024fc <.LBB19_53>:
    800024fc:	00025517          	auipc	a0,0x25
    80002500:	d7450513          	addi	a0,a0,-652 # 80027270 <.Lanon.1896bb8148728528824850fc7e0824e2.18>

0000000080002504 <.LBB19_54>:
    80002504:	00025617          	auipc	a2,0x25
    80002508:	da460613          	addi	a2,a2,-604 # 800272a8 <.Lanon.1896bb8148728528824850fc7e0824e2.19>
    8000250c:	03500593          	li	a1,53
    80002510:	00021097          	auipc	ra,0x21
    80002514:	516080e7          	jalr	1302(ra) # 80023a26 <_ZN4core9panicking5panic17h92f54f473578363dE>
    80002518:	0000                	unimp
    8000251a:	12000513          	li	a0,288
    8000251e:	45a1                	li	a1,8
    80002520:	00021097          	auipc	ra,0x21
    80002524:	366080e7          	jalr	870(ra) # 80023886 <_ZN5alloc5alloc18handle_alloc_error17h48d9534aaf1ab1f8E>
	...

000000008000252a <.LBB19_55>:
    8000252a:	00025617          	auipc	a2,0x25
    8000252e:	d2e60613          	addi	a2,a2,-722 # 80027258 <.Lanon.1896bb8148728528824850fc7e0824e2.17>
    80002532:	45b1                	li	a1,12
    80002534:	00023097          	auipc	ra,0x23
    80002538:	03a080e7          	jalr	58(ra) # 8002556e <_ZN4core5slice5index24slice_end_index_len_fail17h5d1e1d044f43082eE>
    8000253c:	0000                	unimp
    8000253e:	0c000513          	li	a0,192
    80002542:	45a1                	li	a1,8
    80002544:	00021097          	auipc	ra,0x21
    80002548:	342080e7          	jalr	834(ra) # 80023886 <_ZN5alloc5alloc18handle_alloc_error17h48d9534aaf1ab1f8E>
	...

000000008000254e <_ZN5alloc11collections5btree4node210Handle$LT$alloc..collections..btree..node..NodeRef$LT$alloc..collections..btree..node..marker..Mut$C$K$C$V$C$alloc..collections..btree..node..marker..Leaf$GT$$C$alloc..collections..btree..node..marker..Edge$GT$16insert_recursing17h76acc0f859fcfaa2E>:
    8000254e:	7155                	addi	sp,sp,-208
    80002550:	e586                	sd	ra,200(sp)
    80002552:	e1a2                	sd	s0,192(sp)
    80002554:	fd26                	sd	s1,184(sp)
    80002556:	f94a                	sd	s2,176(sp)
    80002558:	f54e                	sd	s3,168(sp)
    8000255a:	f152                	sd	s4,160(sp)
    8000255c:	ed56                	sd	s5,152(sp)
    8000255e:	e95a                	sd	s6,144(sp)
    80002560:	e55e                	sd	s7,136(sp)
    80002562:	e162                	sd	s8,128(sp)
    80002564:	fce6                	sd	s9,120(sp)
    80002566:	f8ea                	sd	s10,112(sp)
    80002568:	f4ee                	sd	s11,104(sp)
    8000256a:	0980                	addi	s0,sp,208
    8000256c:	872e                	mv	a4,a1
    8000256e:	0085bd83          	ld	s11,8(a1)
    80002572:	0badd483          	lhu	s1,186(s11)
    80002576:	698c                	ld	a1,16(a1)
    80002578:	47ad                	li	a5,11
    8000257a:	8a36                	mv	s4,a3
    8000257c:	8ab2                	mv	s5,a2
    8000257e:	8caa                	mv	s9,a0
    80002580:	00f4ff63          	bgeu	s1,a5,8000259e <_ZN5alloc11collections5btree4node210Handle$LT$alloc..collections..btree..node..NodeRef$LT$alloc..collections..btree..node..marker..Mut$C$K$C$V$C$alloc..collections..btree..node..marker..Leaf$GT$$C$alloc..collections..btree..node..marker..Edge$GT$16insert_recursing17h76acc0f859fcfaa2E+0x50>
    80002584:	00158513          	addi	a0,a1,1
    80002588:	00359b93          	slli	s7,a1,0x3
    8000258c:	017d8b33          	add	s6,s11,s7
    80002590:	008b0913          	addi	s2,s6,8
    80002594:	0ca4fb63          	bgeu	s1,a0,8000266a <_ZN5alloc11collections5btree4node210Handle$LT$alloc..collections..btree..node..NodeRef$LT$alloc..collections..btree..node..marker..Mut$C$K$C$V$C$alloc..collections..btree..node..marker..Leaf$GT$$C$alloc..collections..btree..node..marker..Edge$GT$16insert_recursing17h76acc0f859fcfaa2E+0x11c>
    80002598:	01593023          	sd	s5,0(s2)
    8000259c:	a211                	j	800026a0 <_ZN5alloc11collections5btree4node210Handle$LT$alloc..collections..btree..node..NodeRef$LT$alloc..collections..btree..node..marker..Mut$C$K$C$V$C$alloc..collections..btree..node..marker..Leaf$GT$$C$alloc..collections..btree..node..marker..Edge$GT$16insert_recursing17h76acc0f859fcfaa2E+0x152>
    8000259e:	00073d03          	ld	s10,0(a4)
    800025a2:	f8040513          	addi	a0,s0,-128
    800025a6:	00021097          	auipc	ra,0x21
    800025aa:	30a080e7          	jalr	778(ra) # 800238b0 <_ZN5alloc11collections5btree4node10splitpoint17hab968fab914292cdE>
    800025ae:	f8043c03          	ld	s8,-128(s0)
    800025b2:	f8843b03          	ld	s6,-120(s0)
    800025b6:	f9043983          	ld	s3,-112(s0)
    800025ba:	0c000513          	li	a0,192
    800025be:	45a1                	li	a1,8
    800025c0:	00019097          	auipc	ra,0x19
    800025c4:	bfa080e7          	jalr	-1030(ra) # 8001b1ba <__rust_alloc>
    800025c8:	4c050463          	beqz	a0,80002a90 <.LBB20_57+0x14>
    800025cc:	84aa                	mv	s1,a0
    800025ce:	00053023          	sd	zero,0(a0)
    800025d2:	0badd603          	lhu	a2,186(s11)
    800025d6:	fffc4513          	not	a0,s8
    800025da:	9532                	add	a0,a0,a2
    800025dc:	45b1                	li	a1,12
    800025de:	0aa49d23          	sh	a0,186(s1)
    800025e2:	44b57c63          	bgeu	a0,a1,80002a3a <.LBB20_54>
    800025e6:	f7a43c23          	sd	s10,-136(s0)
    800025ea:	001c0593          	addi	a1,s8,1
    800025ee:	8e0d                	sub	a2,a2,a1
    800025f0:	42a61663          	bne	a2,a0,80002a1c <.LBB20_52>
    800025f4:	003c1613          	slli	a2,s8,0x3
    800025f8:	966e                	add	a2,a2,s11
    800025fa:	00863d03          	ld	s10,8(a2)
    800025fe:	7230                	ld	a2,96(a2)
    80002600:	f6c43423          	sd	a2,-152(s0)
    80002604:	00848613          	addi	a2,s1,8
    80002608:	058e                	slli	a1,a1,0x3
    8000260a:	00bd8bb3          	add	s7,s11,a1
    8000260e:	008b8593          	addi	a1,s7,8
    80002612:	00351913          	slli	s2,a0,0x3
    80002616:	8532                	mv	a0,a2
    80002618:	864a                	mv	a2,s2
    8000261a:	00024097          	auipc	ra,0x24
    8000261e:	616080e7          	jalr	1558(ra) # 80026c30 <memcpy>
    80002622:	06048513          	addi	a0,s1,96
    80002626:	060b8593          	addi	a1,s7,96
    8000262a:	864a                	mv	a2,s2
    8000262c:	00024097          	auipc	ra,0x24
    80002630:	604080e7          	jalr	1540(ra) # 80026c30 <memcpy>
    80002634:	0b8d9d23          	sh	s8,186(s11)
    80002638:	8c6e                	mv	s8,s11
    8000263a:	000b0363          	beqz	s6,80002640 <_ZN5alloc11collections5btree4node210Handle$LT$alloc..collections..btree..node..NodeRef$LT$alloc..collections..btree..node..marker..Mut$C$K$C$V$C$alloc..collections..btree..node..marker..Leaf$GT$$C$alloc..collections..btree..node..marker..Edge$GT$16insert_recursing17h76acc0f859fcfaa2E+0xf2>
    8000263e:	8c26                	mv	s8,s1
    80002640:	0bac5b83          	lhu	s7,186(s8)
    80002644:	008c0513          	addi	a0,s8,8
    80002648:	00198593          	addi	a1,s3,1
    8000264c:	00399b13          	slli	s6,s3,0x3
    80002650:	01650933          	add	s2,a0,s6
    80002654:	f5943023          	sd	s9,-192(s0)
    80002658:	f6943823          	sd	s1,-144(s0)
    8000265c:	04bbfd63          	bgeu	s7,a1,800026b6 <_ZN5alloc11collections5btree4node210Handle$LT$alloc..collections..btree..node..NodeRef$LT$alloc..collections..btree..node..marker..Mut$C$K$C$V$C$alloc..collections..btree..node..marker..Leaf$GT$$C$alloc..collections..btree..node..marker..Edge$GT$16insert_recursing17h76acc0f859fcfaa2E+0x168>
    80002660:	01593023          	sd	s5,0(s2)
    80002664:	060c0493          	addi	s1,s8,96
    80002668:	a049                	j	800026ea <_ZN5alloc11collections5btree4node210Handle$LT$alloc..collections..btree..node..NodeRef$LT$alloc..collections..btree..node..marker..Mut$C$K$C$V$C$alloc..collections..btree..node..marker..Leaf$GT$$C$alloc..collections..btree..node..marker..Edge$GT$16insert_recursing17h76acc0f859fcfaa2E+0x19c>
    8000266a:	00351c13          	slli	s8,a0,0x3
    8000266e:	018d8533          	add	a0,s11,s8
    80002672:	0521                	addi	a0,a0,8
    80002674:	40b485b3          	sub	a1,s1,a1
    80002678:	00359993          	slli	s3,a1,0x3
    8000267c:	85ca                	mv	a1,s2
    8000267e:	864e                	mv	a2,s3
    80002680:	00024097          	auipc	ra,0x24
    80002684:	598080e7          	jalr	1432(ra) # 80026c18 <memmove>
    80002688:	01593023          	sd	s5,0(s2)
    8000268c:	060d8513          	addi	a0,s11,96
    80002690:	017505b3          	add	a1,a0,s7
    80002694:	9562                	add	a0,a0,s8
    80002696:	864e                	mv	a2,s3
    80002698:	00024097          	auipc	ra,0x24
    8000269c:	580080e7          	jalr	1408(ra) # 80026c18 <memmove>
    800026a0:	0014851b          	addiw	a0,s1,1
    800026a4:	060b0593          	addi	a1,s6,96
    800026a8:	074b3023          	sd	s4,96(s6)
    800026ac:	0aad9d23          	sh	a0,186(s11)
    800026b0:	000cb423          	sd	zero,8(s9)
    800026b4:	a699                	j	800029fa <_ZN5alloc11collections5btree4node210Handle$LT$alloc..collections..btree..node..NodeRef$LT$alloc..collections..btree..node..marker..Mut$C$K$C$V$C$alloc..collections..btree..node..marker..Leaf$GT$$C$alloc..collections..btree..node..marker..Edge$GT$16insert_recursing17h76acc0f859fcfaa2E+0x4ac>
    800026b6:	00359c93          	slli	s9,a1,0x3
    800026ba:	9566                	add	a0,a0,s9
    800026bc:	413b85b3          	sub	a1,s7,s3
    800026c0:	00359993          	slli	s3,a1,0x3
    800026c4:	85ca                	mv	a1,s2
    800026c6:	864e                	mv	a2,s3
    800026c8:	00024097          	auipc	ra,0x24
    800026cc:	550080e7          	jalr	1360(ra) # 80026c18 <memmove>
    800026d0:	01593023          	sd	s5,0(s2)
    800026d4:	060c0493          	addi	s1,s8,96
    800026d8:	016485b3          	add	a1,s1,s6
    800026dc:	01948533          	add	a0,s1,s9
    800026e0:	864e                	mv	a2,s3
    800026e2:	00024097          	auipc	ra,0x24
    800026e6:	536080e7          	jalr	1334(ra) # 80026c18 <memmove>
    800026ea:	86ea                	mv	a3,s10
    800026ec:	001b851b          	addiw	a0,s7,1
    800026f0:	016485b3          	add	a1,s1,s6
    800026f4:	0145b023          	sd	s4,0(a1)
    800026f8:	0aac1d23          	sh	a0,186(s8)
    800026fc:	000db503          	ld	a0,0(s11)
    80002700:	016485b3          	add	a1,s1,s6
    80002704:	20050463          	beqz	a0,8000290c <_ZN5alloc11collections5btree4node210Handle$LT$alloc..collections..btree..node..NodeRef$LT$alloc..collections..btree..node..marker..Mut$C$K$C$V$C$alloc..collections..btree..node..marker..Leaf$GT$$C$alloc..collections..btree..node..marker..Edge$GT$16insert_recursing17h76acc0f859fcfaa2E+0x3be>
    80002708:	f2b43c23          	sd	a1,-200(s0)
    8000270c:	4581                	li	a1,0
    8000270e:	4cb1                	li	s9,12
    80002710:	f7843b83          	ld	s7,-136(s0)
    80002714:	a01d                	j	8000273a <_ZN5alloc11collections5btree4node210Handle$LT$alloc..collections..btree..node..NodeRef$LT$alloc..collections..btree..node..marker..Mut$C$K$C$V$C$alloc..collections..btree..node..marker..Leaf$GT$$C$alloc..collections..btree..node..marker..Edge$GT$16insert_recursing17h76acc0f859fcfaa2E+0x1ec>
    80002716:	000d3503          	ld	a0,0(s10)
    8000271a:	8dea                	mv	s11,s10
    8000271c:	f5843703          	ld	a4,-168(s0)
    80002720:	86ba                	mv	a3,a4
    80002722:	f5043603          	ld	a2,-176(s0)
    80002726:	f6c43423          	sd	a2,-152(s0)
    8000272a:	f7843b83          	ld	s7,-136(s0)
    8000272e:	85de                	mv	a1,s7
    80002730:	f7343823          	sd	s3,-144(s0)
    80002734:	4cb1                	li	s9,12
    80002736:	24050c63          	beqz	a0,8000298e <_ZN5alloc11collections5btree4node210Handle$LT$alloc..collections..btree..node..NodeRef$LT$alloc..collections..btree..node..marker..Mut$C$K$C$V$C$alloc..collections..btree..node..marker..Leaf$GT$$C$alloc..collections..btree..node..marker..Edge$GT$16insert_recursing17h76acc0f859fcfaa2E+0x440>
    8000273a:	30bb9a63          	bne	s7,a1,80002a4e <.LBB20_55>
    8000273e:	8d2a                	mv	s10,a0
    80002740:	0ba55b03          	lhu	s6,186(a0)
    80002744:	0b8dd483          	lhu	s1,184(s11)
    80002748:	452d                	li	a0,11
    8000274a:	1cab6963          	bltu	s6,a0,8000291c <_ZN5alloc11collections5btree4node210Handle$LT$alloc..collections..btree..node..NodeRef$LT$alloc..collections..btree..node..marker..Mut$C$K$C$V$C$alloc..collections..btree..node..marker..Leaf$GT$$C$alloc..collections..btree..node..marker..Edge$GT$16insert_recursing17h76acc0f859fcfaa2E+0x3ce>
    8000274e:	f6d43023          	sd	a3,-160(s0)
    80002752:	f8040513          	addi	a0,s0,-128
    80002756:	85a6                	mv	a1,s1
    80002758:	00021097          	auipc	ra,0x21
    8000275c:	158080e7          	jalr	344(ra) # 800238b0 <_ZN5alloc11collections5btree4node10splitpoint17hab968fab914292cdE>
    80002760:	f8043d83          	ld	s11,-128(s0)
    80002764:	f8843a83          	ld	s5,-120(s0)
    80002768:	f9043c03          	ld	s8,-112(s0)
    8000276c:	0bad5b03          	lhu	s6,186(s10)
    80002770:	12000513          	li	a0,288
    80002774:	45a1                	li	a1,8
    80002776:	00019097          	auipc	ra,0x19
    8000277a:	a44080e7          	jalr	-1468(ra) # 8001b1ba <__rust_alloc>
    8000277e:	2e050763          	beqz	a0,80002a6c <.LBB20_56+0x16>
    80002782:	89aa                	mv	s3,a0
    80002784:	00053023          	sd	zero,0(a0)
    80002788:	0bad5603          	lhu	a2,186(s10)
    8000278c:	fffdc513          	not	a0,s11
    80002790:	9532                	add	a0,a0,a2
    80002792:	0aa99d23          	sh	a0,186(s3)
    80002796:	2b957263          	bgeu	a0,s9,80002a3a <.LBB20_54>
    8000279a:	001d8593          	addi	a1,s11,1
    8000279e:	8e0d                	sub	a2,a2,a1
    800027a0:	26a61e63          	bne	a2,a0,80002a1c <.LBB20_52>
    800027a4:	008d0693          	addi	a3,s10,8
    800027a8:	003d9613          	slli	a2,s11,0x3
    800027ac:	00c68733          	add	a4,a3,a2
    800027b0:	6318                	ld	a4,0(a4)
    800027b2:	f4e43c23          	sd	a4,-168(s0)
    800027b6:	060d0493          	addi	s1,s10,96
    800027ba:	9626                	add	a2,a2,s1
    800027bc:	6210                	ld	a2,0(a2)
    800027be:	f4c43823          	sd	a2,-176(s0)
    800027c2:	00898613          	addi	a2,s3,8
    800027c6:	00359913          	slli	s2,a1,0x3
    800027ca:	012685b3          	add	a1,a3,s2
    800027ce:	00351a13          	slli	s4,a0,0x3
    800027d2:	8532                	mv	a0,a2
    800027d4:	8652                	mv	a2,s4
    800027d6:	00024097          	auipc	ra,0x24
    800027da:	45a080e7          	jalr	1114(ra) # 80026c30 <memcpy>
    800027de:	06098513          	addi	a0,s3,96
    800027e2:	012485b3          	add	a1,s1,s2
    800027e6:	8652                	mv	a2,s4
    800027e8:	00024097          	auipc	ra,0x24
    800027ec:	448080e7          	jalr	1096(ra) # 80026c30 <memcpy>
    800027f0:	0bbd1d23          	sh	s11,186(s10)
    800027f4:	0ba9d483          	lhu	s1,186(s3)
    800027f8:	00148513          	addi	a0,s1,1
    800027fc:	2994f063          	bgeu	s1,s9,80002a7c <.LBB20_57>
    80002800:	41bb0633          	sub	a2,s6,s11
    80002804:	20a61c63          	bne	a2,a0,80002a1c <.LBB20_52>
    80002808:	0b85                	addi	s7,s7,1
    8000280a:	012d0533          	add	a0,s10,s2
    8000280e:	0c050593          	addi	a1,a0,192
    80002812:	0c098513          	addi	a0,s3,192
    80002816:	060e                	slli	a2,a2,0x3
    80002818:	00024097          	auipc	ra,0x24
    8000281c:	418080e7          	jalr	1048(ra) # 80026c30 <memcpy>
    80002820:	4501                	li	a0,0
    80002822:	00351593          	slli	a1,a0,0x3
    80002826:	95ce                	add	a1,a1,s3
    80002828:	61ec                	ld	a1,192(a1)
    8000282a:	00953633          	sltu	a2,a0,s1
    8000282e:	00164693          	xori	a3,a2,1
    80002832:	0aa59c23          	sh	a0,184(a1)
    80002836:	9532                	add	a0,a0,a2
    80002838:	00a4b633          	sltu	a2,s1,a0
    8000283c:	8e55                	or	a2,a2,a3
    8000283e:	0135b023          	sd	s3,0(a1)
    80002842:	d265                	beqz	a2,80002822 <_ZN5alloc11collections5btree4node210Handle$LT$alloc..collections..btree..node..NodeRef$LT$alloc..collections..btree..node..marker..Mut$C$K$C$V$C$alloc..collections..btree..node..marker..Leaf$GT$$C$alloc..collections..btree..node..marker..Edge$GT$16insert_recursing17h76acc0f859fcfaa2E+0x2d4>
    80002844:	f7743c23          	sd	s7,-136(s0)
    80002848:	8dea                	mv	s11,s10
    8000284a:	000a8363          	beqz	s5,80002850 <_ZN5alloc11collections5btree4node210Handle$LT$alloc..collections..btree..node..NodeRef$LT$alloc..collections..btree..node..marker..Mut$C$K$C$V$C$alloc..collections..btree..node..marker..Leaf$GT$$C$alloc..collections..btree..node..marker..Edge$GT$16insert_recursing17h76acc0f859fcfaa2E+0x302>
    8000284e:	8dce                	mv	s11,s3
    80002850:	0badd903          	lhu	s2,186(s11)
    80002854:	001c0b93          	addi	s7,s8,1
    80002858:	003c1493          	slli	s1,s8,0x3
    8000285c:	009d8b33          	add	s6,s11,s1
    80002860:	008b0a13          	addi	s4,s6,8
    80002864:	003b9c93          	slli	s9,s7,0x3
    80002868:	418905b3          	sub	a1,s2,s8
    8000286c:	f4b43423          	sd	a1,-184(s0)
    80002870:	01797763          	bgeu	s2,s7,8000287e <_ZN5alloc11collections5btree4node210Handle$LT$alloc..collections..btree..node..NodeRef$LT$alloc..collections..btree..node..marker..Mut$C$K$C$V$C$alloc..collections..btree..node..marker..Leaf$GT$$C$alloc..collections..btree..node..marker..Edge$GT$16insert_recursing17h76acc0f859fcfaa2E+0x330>
    80002874:	f6043503          	ld	a0,-160(s0)
    80002878:	00aa3023          	sd	a0,0(s4)
    8000287c:	a815                	j	800028b0 <_ZN5alloc11collections5btree4node210Handle$LT$alloc..collections..btree..node..NodeRef$LT$alloc..collections..btree..node..marker..Mut$C$K$C$V$C$alloc..collections..btree..node..marker..Leaf$GT$$C$alloc..collections..btree..node..marker..Edge$GT$16insert_recursing17h76acc0f859fcfaa2E+0x362>
    8000287e:	019d8533          	add	a0,s11,s9
    80002882:	0521                	addi	a0,a0,8
    80002884:	00359a93          	slli	s5,a1,0x3
    80002888:	85d2                	mv	a1,s4
    8000288a:	8656                	mv	a2,s5
    8000288c:	00024097          	auipc	ra,0x24
    80002890:	38c080e7          	jalr	908(ra) # 80026c18 <memmove>
    80002894:	f6043503          	ld	a0,-160(s0)
    80002898:	00aa3023          	sd	a0,0(s4)
    8000289c:	060d8513          	addi	a0,s11,96
    800028a0:	009505b3          	add	a1,a0,s1
    800028a4:	9566                	add	a0,a0,s9
    800028a6:	8656                	mv	a2,s5
    800028a8:	00024097          	auipc	ra,0x24
    800028ac:	370080e7          	jalr	880(ra) # 80026c18 <memmove>
    800028b0:	f6843583          	ld	a1,-152(s0)
    800028b4:	00290493          	addi	s1,s2,2
    800028b8:	002c0513          	addi	a0,s8,2
    800028bc:	06bb3023          	sd	a1,96(s6)
    800028c0:	00957f63          	bgeu	a0,s1,800028de <_ZN5alloc11collections5btree4node210Handle$LT$alloc..collections..btree..node..NodeRef$LT$alloc..collections..btree..node..marker..Mut$C$K$C$V$C$alloc..collections..btree..node..marker..Leaf$GT$$C$alloc..collections..btree..node..marker..Edge$GT$16insert_recursing17h76acc0f859fcfaa2E+0x390>
    800028c4:	0c0d8613          	addi	a2,s11,192
    800028c8:	019605b3          	add	a1,a2,s9
    800028cc:	050e                	slli	a0,a0,0x3
    800028ce:	9532                	add	a0,a0,a2
    800028d0:	f4843603          	ld	a2,-184(s0)
    800028d4:	060e                	slli	a2,a2,0x3
    800028d6:	00024097          	auipc	ra,0x24
    800028da:	342080e7          	jalr	834(ra) # 80026c18 <memmove>
    800028de:	00190513          	addi	a0,s2,1
    800028e2:	019d85b3          	add	a1,s11,s9
    800028e6:	f7043603          	ld	a2,-144(s0)
    800028ea:	e1f0                	sd	a2,192(a1)
    800028ec:	0aad9d23          	sh	a0,186(s11)
    800028f0:	e29bf3e3          	bgeu	s7,s1,80002716 <_ZN5alloc11collections5btree4node210Handle$LT$alloc..collections..btree..node..NodeRef$LT$alloc..collections..btree..node..marker..Mut$C$K$C$V$C$alloc..collections..btree..node..marker..Leaf$GT$$C$alloc..collections..btree..node..marker..Edge$GT$16insert_recursing17h76acc0f859fcfaa2E+0x1c8>
    800028f4:	0c8b0593          	addi	a1,s6,200
    800028f8:	6190                	ld	a2,0(a1)
    800028fa:	0c05                	addi	s8,s8,1
    800028fc:	01b63023          	sd	s11,0(a2)
    80002900:	0b861c23          	sh	s8,184(a2)
    80002904:	05a1                	addi	a1,a1,8
    80002906:	ff8519e3          	bne	a0,s8,800028f8 <_ZN5alloc11collections5btree4node210Handle$LT$alloc..collections..btree..node..NodeRef$LT$alloc..collections..btree..node..marker..Mut$C$K$C$V$C$alloc..collections..btree..node..marker..Leaf$GT$$C$alloc..collections..btree..node..marker..Edge$GT$16insert_recursing17h76acc0f859fcfaa2E+0x3aa>
    8000290a:	b531                	j	80002716 <_ZN5alloc11collections5btree4node210Handle$LT$alloc..collections..btree..node..NodeRef$LT$alloc..collections..btree..node..marker..Mut$C$K$C$V$C$alloc..collections..btree..node..marker..Leaf$GT$$C$alloc..collections..btree..node..marker..Edge$GT$16insert_recursing17h76acc0f859fcfaa2E+0x1c8>
    8000290c:	4501                	li	a0,0
    8000290e:	f7043983          	ld	s3,-144(s0)
    80002912:	f7843b83          	ld	s7,-136(s0)
    80002916:	f6843603          	ld	a2,-152(s0)
    8000291a:	a8bd                	j	80002998 <_ZN5alloc11collections5btree4node210Handle$LT$alloc..collections..btree..node..NodeRef$LT$alloc..collections..btree..node..marker..Mut$C$K$C$V$C$alloc..collections..btree..node..marker..Leaf$GT$$C$alloc..collections..btree..node..marker..Edge$GT$16insert_recursing17h76acc0f859fcfaa2E+0x44a>
    8000291c:	001b0993          	addi	s3,s6,1
    80002920:	00148b93          	addi	s7,s1,1
    80002924:	00349c93          	slli	s9,s1,0x3
    80002928:	019d0933          	add	s2,s10,s9
    8000292c:	00890a13          	addi	s4,s2,8
    80002930:	003b9c13          	slli	s8,s7,0x3
    80002934:	0964f163          	bgeu	s1,s6,800029b6 <_ZN5alloc11collections5btree4node210Handle$LT$alloc..collections..btree..node..NodeRef$LT$alloc..collections..btree..node..marker..Mut$C$K$C$V$C$alloc..collections..btree..node..marker..Leaf$GT$$C$alloc..collections..btree..node..marker..Edge$GT$16insert_recursing17h76acc0f859fcfaa2E+0x468>
    80002938:	018d0533          	add	a0,s10,s8
    8000293c:	0521                	addi	a0,a0,8
    8000293e:	409b05b3          	sub	a1,s6,s1
    80002942:	00359a93          	slli	s5,a1,0x3
    80002946:	85d2                	mv	a1,s4
    80002948:	8656                	mv	a2,s5
    8000294a:	8db6                	mv	s11,a3
    8000294c:	00024097          	auipc	ra,0x24
    80002950:	2cc080e7          	jalr	716(ra) # 80026c18 <memmove>
    80002954:	01ba3023          	sd	s11,0(s4)
    80002958:	060d0513          	addi	a0,s10,96
    8000295c:	01950a33          	add	s4,a0,s9
    80002960:	9562                	add	a0,a0,s8
    80002962:	85d2                	mv	a1,s4
    80002964:	8656                	mv	a2,s5
    80002966:	00024097          	auipc	ra,0x24
    8000296a:	2b2080e7          	jalr	690(ra) # 80026c18 <memmove>
    8000296e:	f6843503          	ld	a0,-152(s0)
    80002972:	00aa3023          	sd	a0,0(s4)
    80002976:	0c0d0513          	addi	a0,s10,192
    8000297a:	018505b3          	add	a1,a0,s8
    8000297e:	9566                	add	a0,a0,s9
    80002980:	0541                	addi	a0,a0,16
    80002982:	8656                	mv	a2,s5
    80002984:	00024097          	auipc	ra,0x24
    80002988:	294080e7          	jalr	660(ra) # 80026c18 <memmove>
    8000298c:	a81d                	j	800029c2 <_ZN5alloc11collections5btree4node210Handle$LT$alloc..collections..btree..node..NodeRef$LT$alloc..collections..btree..node..marker..Mut$C$K$C$V$C$alloc..collections..btree..node..marker..Leaf$GT$$C$alloc..collections..btree..node..marker..Edge$GT$16insert_recursing17h76acc0f859fcfaa2E+0x474>
    8000298e:	855e                	mv	a0,s7
    80002990:	86ba                	mv	a3,a4
    80002992:	8dea                	mv	s11,s10
    80002994:	f3843583          	ld	a1,-200(s0)
    80002998:	f4043c83          	ld	s9,-192(s0)
    8000299c:	017cb023          	sd	s7,0(s9)
    800029a0:	01bcb423          	sd	s11,8(s9)
    800029a4:	00dcb823          	sd	a3,16(s9)
    800029a8:	00ccbc23          	sd	a2,24(s9)
    800029ac:	02acb023          	sd	a0,32(s9)
    800029b0:	033cb423          	sd	s3,40(s9)
    800029b4:	a099                	j	800029fa <_ZN5alloc11collections5btree4node210Handle$LT$alloc..collections..btree..node..NodeRef$LT$alloc..collections..btree..node..marker..Mut$C$K$C$V$C$alloc..collections..btree..node..marker..Leaf$GT$$C$alloc..collections..btree..node..marker..Edge$GT$16insert_recursing17h76acc0f859fcfaa2E+0x4ac>
    800029b6:	00da3023          	sd	a3,0(s4)
    800029ba:	f6843503          	ld	a0,-152(s0)
    800029be:	06a93023          	sd	a0,96(s2)
    800029c2:	002b0513          	addi	a0,s6,2
    800029c6:	018d05b3          	add	a1,s10,s8
    800029ca:	f7043603          	ld	a2,-144(s0)
    800029ce:	e1f0                	sd	a2,192(a1)
    800029d0:	0b3d1d23          	sh	s3,186(s10)
    800029d4:	00abfd63          	bgeu	s7,a0,800029ee <_ZN5alloc11collections5btree4node210Handle$LT$alloc..collections..btree..node..NodeRef$LT$alloc..collections..btree..node..marker..Mut$C$K$C$V$C$alloc..collections..btree..node..marker..Leaf$GT$$C$alloc..collections..btree..node..marker..Edge$GT$16insert_recursing17h76acc0f859fcfaa2E+0x4a0>
    800029d8:	0c890513          	addi	a0,s2,200
    800029dc:	610c                	ld	a1,0(a0)
    800029de:	0485                	addi	s1,s1,1
    800029e0:	01a5b023          	sd	s10,0(a1)
    800029e4:	0a959c23          	sh	s1,184(a1)
    800029e8:	0521                	addi	a0,a0,8
    800029ea:	fe9999e3          	bne	s3,s1,800029dc <_ZN5alloc11collections5btree4node210Handle$LT$alloc..collections..btree..node..NodeRef$LT$alloc..collections..btree..node..marker..Mut$C$K$C$V$C$alloc..collections..btree..node..marker..Leaf$GT$$C$alloc..collections..btree..node..marker..Edge$GT$16insert_recursing17h76acc0f859fcfaa2E+0x48e>
    800029ee:	f4043c83          	ld	s9,-192(s0)
    800029f2:	000cb423          	sd	zero,8(s9)
    800029f6:	f3843583          	ld	a1,-200(s0)
    800029fa:	02bcb823          	sd	a1,48(s9)
    800029fe:	60ae                	ld	ra,200(sp)
    80002a00:	640e                	ld	s0,192(sp)
    80002a02:	74ea                	ld	s1,184(sp)
    80002a04:	794a                	ld	s2,176(sp)
    80002a06:	79aa                	ld	s3,168(sp)
    80002a08:	7a0a                	ld	s4,160(sp)
    80002a0a:	6aea                	ld	s5,152(sp)
    80002a0c:	6b4a                	ld	s6,144(sp)
    80002a0e:	6baa                	ld	s7,136(sp)
    80002a10:	6c0a                	ld	s8,128(sp)
    80002a12:	7ce6                	ld	s9,120(sp)
    80002a14:	7d46                	ld	s10,112(sp)
    80002a16:	7da6                	ld	s11,104(sp)
    80002a18:	6169                	addi	sp,sp,208
    80002a1a:	8082                	ret

0000000080002a1c <.LBB20_52>:
    80002a1c:	00024517          	auipc	a0,0x24
    80002a20:	7e450513          	addi	a0,a0,2020 # 80027200 <.Lanon.1896bb8148728528824850fc7e0824e2.14>

0000000080002a24 <.LBB20_53>:
    80002a24:	00025617          	auipc	a2,0x25
    80002a28:	80460613          	addi	a2,a2,-2044 # 80027228 <.Lanon.1896bb8148728528824850fc7e0824e2.15>
    80002a2c:	02800593          	li	a1,40
    80002a30:	00021097          	auipc	ra,0x21
    80002a34:	ff6080e7          	jalr	-10(ra) # 80023a26 <_ZN4core9panicking5panic17h92f54f473578363dE>
	...

0000000080002a3a <.LBB20_54>:
    80002a3a:	00025617          	auipc	a2,0x25
    80002a3e:	80660613          	addi	a2,a2,-2042 # 80027240 <.Lanon.1896bb8148728528824850fc7e0824e2.16>
    80002a42:	45ad                	li	a1,11
    80002a44:	00023097          	auipc	ra,0x23
    80002a48:	b2a080e7          	jalr	-1238(ra) # 8002556e <_ZN4core5slice5index24slice_end_index_len_fail17h5d1e1d044f43082eE>
	...

0000000080002a4e <.LBB20_55>:
    80002a4e:	00025517          	auipc	a0,0x25
    80002a52:	82250513          	addi	a0,a0,-2014 # 80027270 <.Lanon.1896bb8148728528824850fc7e0824e2.18>

0000000080002a56 <.LBB20_56>:
    80002a56:	00025617          	auipc	a2,0x25
    80002a5a:	85260613          	addi	a2,a2,-1966 # 800272a8 <.Lanon.1896bb8148728528824850fc7e0824e2.19>
    80002a5e:	03500593          	li	a1,53
    80002a62:	00021097          	auipc	ra,0x21
    80002a66:	fc4080e7          	jalr	-60(ra) # 80023a26 <_ZN4core9panicking5panic17h92f54f473578363dE>
    80002a6a:	0000                	unimp
    80002a6c:	12000513          	li	a0,288
    80002a70:	45a1                	li	a1,8
    80002a72:	00021097          	auipc	ra,0x21
    80002a76:	e14080e7          	jalr	-492(ra) # 80023886 <_ZN5alloc5alloc18handle_alloc_error17h48d9534aaf1ab1f8E>
	...

0000000080002a7c <.LBB20_57>:
    80002a7c:	00024617          	auipc	a2,0x24
    80002a80:	7dc60613          	addi	a2,a2,2012 # 80027258 <.Lanon.1896bb8148728528824850fc7e0824e2.17>
    80002a84:	45b1                	li	a1,12
    80002a86:	00023097          	auipc	ra,0x23
    80002a8a:	ae8080e7          	jalr	-1304(ra) # 8002556e <_ZN4core5slice5index24slice_end_index_len_fail17h5d1e1d044f43082eE>
    80002a8e:	0000                	unimp
    80002a90:	0c000513          	li	a0,192
    80002a94:	45a1                	li	a1,8
    80002a96:	00021097          	auipc	ra,0x21
    80002a9a:	df0080e7          	jalr	-528(ra) # 80023886 <_ZN5alloc5alloc18handle_alloc_error17h48d9534aaf1ab1f8E>
	...

0000000080002aa0 <_ZN5alloc11collections5btree4node210Handle$LT$alloc..collections..btree..node..NodeRef$LT$alloc..collections..btree..node..marker..Mut$C$K$C$V$C$alloc..collections..btree..node..marker..Leaf$GT$$C$alloc..collections..btree..node..marker..Edge$GT$16insert_recursing17hd64522d3ac08a0cdE>:
    80002aa0:	710d                	addi	sp,sp,-352
    80002aa2:	ee86                	sd	ra,344(sp)
    80002aa4:	eaa2                	sd	s0,336(sp)
    80002aa6:	e6a6                	sd	s1,328(sp)
    80002aa8:	e2ca                	sd	s2,320(sp)
    80002aaa:	fe4e                	sd	s3,312(sp)
    80002aac:	fa52                	sd	s4,304(sp)
    80002aae:	f656                	sd	s5,296(sp)
    80002ab0:	f25a                	sd	s6,288(sp)
    80002ab2:	ee5e                	sd	s7,280(sp)
    80002ab4:	ea62                	sd	s8,272(sp)
    80002ab6:	e666                	sd	s9,264(sp)
    80002ab8:	e26a                	sd	s10,256(sp)
    80002aba:	fdee                	sd	s11,248(sp)
    80002abc:	1280                	addi	s0,sp,352
    80002abe:	0085bb03          	ld	s6,8(a1)
    80002ac2:	1c2b5903          	lhu	s2,450(s6)
    80002ac6:	6984                	ld	s1,16(a1)
    80002ac8:	472d                	li	a4,11
    80002aca:	8ab6                	mv	s5,a3
    80002acc:	8a32                	mv	s4,a2
    80002ace:	8d2a                	mv	s10,a0
    80002ad0:	00e97e63          	bgeu	s2,a4,80002aec <_ZN5alloc11collections5btree4node210Handle$LT$alloc..collections..btree..node..NodeRef$LT$alloc..collections..btree..node..marker..Mut$C$K$C$V$C$alloc..collections..btree..node..marker..Leaf$GT$$C$alloc..collections..btree..node..marker..Edge$GT$16insert_recursing17hd64522d3ac08a0cdE+0x4c>
    80002ad4:	00148b93          	addi	s7,s1,1
    80002ad8:	00149513          	slli	a0,s1,0x1
    80002adc:	955a                	add	a0,a0,s6
    80002ade:	1c450993          	addi	s3,a0,452
    80002ae2:	21797063          	bgeu	s2,s7,80002ce2 <_ZN5alloc11collections5btree4node210Handle$LT$alloc..collections..btree..node..NodeRef$LT$alloc..collections..btree..node..marker..Mut$C$K$C$V$C$alloc..collections..btree..node..marker..Leaf$GT$$C$alloc..collections..btree..node..marker..Edge$GT$16insert_recursing17hd64522d3ac08a0cdE+0x242>
    80002ae6:	01499023          	sh	s4,0(s3)
    80002aea:	ac2d                	j	80002d24 <_ZN5alloc11collections5btree4node210Handle$LT$alloc..collections..btree..node..NodeRef$LT$alloc..collections..btree..node..marker..Mut$C$K$C$V$C$alloc..collections..btree..node..marker..Leaf$GT$$C$alloc..collections..btree..node..marker..Edge$GT$16insert_recursing17hd64522d3ac08a0cdE+0x284>
    80002aec:	6188                	ld	a0,0(a1)
    80002aee:	eca43823          	sd	a0,-304(s0)
    80002af2:	f6840513          	addi	a0,s0,-152
    80002af6:	85a6                	mv	a1,s1
    80002af8:	00021097          	auipc	ra,0x21
    80002afc:	db8080e7          	jalr	-584(ra) # 800238b0 <_ZN5alloc11collections5btree4node10splitpoint17hab968fab914292cdE>
    80002b00:	f6843b83          	ld	s7,-152(s0)
    80002b04:	f7043983          	ld	s3,-144(s0)
    80002b08:	f7843903          	ld	s2,-136(s0)
    80002b0c:	1e000513          	li	a0,480
    80002b10:	45a1                	li	a1,8
    80002b12:	00018097          	auipc	ra,0x18
    80002b16:	6a8080e7          	jalr	1704(ra) # 8001b1ba <__rust_alloc>
    80002b1a:	1a0504e3          	beqz	a0,800034c2 <.LBB21_58+0x14>
    80002b1e:	8daa                	mv	s11,a0
    80002b20:	00053023          	sd	zero,0(a0)
    80002b24:	1c2b5503          	lhu	a0,450(s6)
    80002b28:	fffbc593          	not	a1,s7
    80002b2c:	00b50cb3          	add	s9,a0,a1
    80002b30:	1d9d9123          	sh	s9,450(s11)
    80002b34:	008b0c13          	addi	s8,s6,8
    80002b38:	02800593          	li	a1,40
    80002b3c:	02bb85b3          	mul	a1,s7,a1
    80002b40:	95e2                	add	a1,a1,s8
    80002b42:	7190                	ld	a2,32(a1)
    80002b44:	001b9693          	slli	a3,s7,0x1
    80002b48:	96da                	add	a3,a3,s6
    80002b4a:	1c46d683          	lhu	a3,452(a3)
    80002b4e:	ecd43423          	sd	a3,-312(s0)
    80002b52:	f4c43c23          	sd	a2,-168(s0)
    80002b56:	6d90                	ld	a2,24(a1)
    80002b58:	f4c43823          	sd	a2,-176(s0)
    80002b5c:	6990                	ld	a2,16(a1)
    80002b5e:	f4c43423          	sd	a2,-184(s0)
    80002b62:	6590                	ld	a2,8(a1)
    80002b64:	f4c43023          	sd	a2,-192(s0)
    80002b68:	618c                	ld	a1,0(a1)
    80002b6a:	4631                	li	a2,12
    80002b6c:	f2b43c23          	sd	a1,-200(s0)
    80002b70:	16ccf1e3          	bgeu	s9,a2,800034d2 <.LBB21_59>
    80002b74:	001b8493          	addi	s1,s7,1
    80002b78:	8d05                	sub	a0,a0,s1
    80002b7a:	0d9519e3          	bne	a0,s9,8000344c <.LBB21_53>
    80002b7e:	1c4d8513          	addi	a0,s11,452
    80002b82:	00149593          	slli	a1,s1,0x1
    80002b86:	95da                	add	a1,a1,s6
    80002b88:	1c458593          	addi	a1,a1,452
    80002b8c:	001c9613          	slli	a2,s9,0x1
    80002b90:	00024097          	auipc	ra,0x24
    80002b94:	0a0080e7          	jalr	160(ra) # 80026c30 <memcpy>
    80002b98:	008d8513          	addi	a0,s11,8
    80002b9c:	02800613          	li	a2,40
    80002ba0:	02c485b3          	mul	a1,s1,a2
    80002ba4:	95e2                	add	a1,a1,s8
    80002ba6:	02cc8633          	mul	a2,s9,a2
    80002baa:	00024097          	auipc	ra,0x24
    80002bae:	086080e7          	jalr	134(ra) # 80026c30 <memcpy>
    80002bb2:	1d7b1123          	sh	s7,450(s6)
    80002bb6:	f6e40513          	addi	a0,s0,-146
    80002bba:	f3840593          	addi	a1,s0,-200
    80002bbe:	02800613          	li	a2,40
    80002bc2:	00024097          	auipc	ra,0x24
    80002bc6:	06e080e7          	jalr	110(ra) # 80026c30 <memcpy>
    80002bca:	f9441503          	lh	a0,-108(s0)
    80002bce:	f9241583          	lh	a1,-110(s0)
    80002bd2:	f9045603          	lhu	a2,-112(s0)
    80002bd6:	f6a41223          	sh	a0,-156(s0)
    80002bda:	01059513          	slli	a0,a1,0x10
    80002bde:	8d51                	or	a0,a0,a2
    80002be0:	f6a42023          	sw	a0,-160(s0)
    80002be4:	f6a45503          	lhu	a0,-150(s0)
    80002be8:	f6845583          	lhu	a1,-152(s0)
    80002bec:	f6e45603          	lhu	a2,-146(s0)
    80002bf0:	f6c45683          	lhu	a3,-148(s0)
    80002bf4:	0542                	slli	a0,a0,0x10
    80002bf6:	8d4d                	or	a0,a0,a1
    80002bf8:	01061593          	slli	a1,a2,0x10
    80002bfc:	8dd5                	or	a1,a1,a3
    80002bfe:	1582                	slli	a1,a1,0x20
    80002c00:	8d4d                	or	a0,a0,a1
    80002c02:	f2a43c23          	sd	a0,-200(s0)
    80002c06:	f7245503          	lhu	a0,-142(s0)
    80002c0a:	f7045583          	lhu	a1,-144(s0)
    80002c0e:	f7645603          	lhu	a2,-138(s0)
    80002c12:	f7445683          	lhu	a3,-140(s0)
    80002c16:	0542                	slli	a0,a0,0x10
    80002c18:	8d4d                	or	a0,a0,a1
    80002c1a:	01061593          	slli	a1,a2,0x10
    80002c1e:	8dd5                	or	a1,a1,a3
    80002c20:	1582                	slli	a1,a1,0x20
    80002c22:	8d4d                	or	a0,a0,a1
    80002c24:	f4a43023          	sd	a0,-192(s0)
    80002c28:	f7a45503          	lhu	a0,-134(s0)
    80002c2c:	f7845583          	lhu	a1,-136(s0)
    80002c30:	f7e45603          	lhu	a2,-130(s0)
    80002c34:	f7c45683          	lhu	a3,-132(s0)
    80002c38:	0542                	slli	a0,a0,0x10
    80002c3a:	8d4d                	or	a0,a0,a1
    80002c3c:	01061593          	slli	a1,a2,0x10
    80002c40:	8dd5                	or	a1,a1,a3
    80002c42:	1582                	slli	a1,a1,0x20
    80002c44:	8d4d                	or	a0,a0,a1
    80002c46:	f4a43423          	sd	a0,-184(s0)
    80002c4a:	f8245503          	lhu	a0,-126(s0)
    80002c4e:	f8045583          	lhu	a1,-128(s0)
    80002c52:	f8645603          	lhu	a2,-122(s0)
    80002c56:	f8445683          	lhu	a3,-124(s0)
    80002c5a:	0542                	slli	a0,a0,0x10
    80002c5c:	8d4d                	or	a0,a0,a1
    80002c5e:	01061593          	slli	a1,a2,0x10
    80002c62:	8dd5                	or	a1,a1,a3
    80002c64:	1582                	slli	a1,a1,0x20
    80002c66:	8d4d                	or	a0,a0,a1
    80002c68:	f4a43823          	sd	a0,-176(s0)
    80002c6c:	f8a45503          	lhu	a0,-118(s0)
    80002c70:	f8845583          	lhu	a1,-120(s0)
    80002c74:	f8e45603          	lhu	a2,-114(s0)
    80002c78:	f8c45683          	lhu	a3,-116(s0)
    80002c7c:	0542                	slli	a0,a0,0x10
    80002c7e:	8d4d                	or	a0,a0,a1
    80002c80:	01061593          	slli	a1,a2,0x10
    80002c84:	8dd5                	or	a1,a1,a3
    80002c86:	1582                	slli	a1,a1,0x20
    80002c88:	8d4d                	or	a0,a0,a1
    80002c8a:	f4a43c23          	sd	a0,-168(s0)
    80002c8e:	8bda                	mv	s7,s6
    80002c90:	00098363          	beqz	s3,80002c96 <_ZN5alloc11collections5btree4node210Handle$LT$alloc..collections..btree..node..NodeRef$LT$alloc..collections..btree..node..marker..Mut$C$K$C$V$C$alloc..collections..btree..node..marker..Leaf$GT$$C$alloc..collections..btree..node..marker..Edge$GT$16insert_recursing17hd64522d3ac08a0cdE+0x1f6>
    80002c94:	8bee                	mv	s7,s11
    80002c96:	020ab503          	ld	a0,32(s5)
    80002c9a:	f8a43423          	sd	a0,-120(s0)
    80002c9e:	018ab503          	ld	a0,24(s5)
    80002ca2:	010ab583          	ld	a1,16(s5)
    80002ca6:	008ab603          	ld	a2,8(s5)
    80002caa:	000ab683          	ld	a3,0(s5)
    80002cae:	f8a43023          	sd	a0,-128(s0)
    80002cb2:	f6b43c23          	sd	a1,-136(s0)
    80002cb6:	f6c43823          	sd	a2,-144(s0)
    80002cba:	f6d43423          	sd	a3,-152(s0)
    80002cbe:	1c2bd983          	lhu	s3,450(s7)
    80002cc2:	00190a93          	addi	s5,s2,1
    80002cc6:	00191513          	slli	a0,s2,0x1
    80002cca:	955e                	add	a0,a0,s7
    80002ccc:	1c450493          	addi	s1,a0,452
    80002cd0:	eba43423          	sd	s10,-344(s0)
    80002cd4:	0959f763          	bgeu	s3,s5,80002d62 <_ZN5alloc11collections5btree4node210Handle$LT$alloc..collections..btree..node..NodeRef$LT$alloc..collections..btree..node..marker..Mut$C$K$C$V$C$alloc..collections..btree..node..marker..Leaf$GT$$C$alloc..collections..btree..node..marker..Edge$GT$16insert_recursing17hd64522d3ac08a0cdE+0x2c2>
    80002cd8:	01449023          	sh	s4,0(s1)
    80002cdc:	008b8a13          	addi	s4,s7,8
    80002ce0:	a0d1                	j	80002da4 <_ZN5alloc11collections5btree4node210Handle$LT$alloc..collections..btree..node..NodeRef$LT$alloc..collections..btree..node..marker..Mut$C$K$C$V$C$alloc..collections..btree..node..marker..Leaf$GT$$C$alloc..collections..btree..node..marker..Edge$GT$16insert_recursing17hd64522d3ac08a0cdE+0x304>
    80002ce2:	001b9513          	slli	a0,s7,0x1
    80002ce6:	955a                	add	a0,a0,s6
    80002ce8:	1c450513          	addi	a0,a0,452
    80002cec:	40990c33          	sub	s8,s2,s1
    80002cf0:	001c1613          	slli	a2,s8,0x1
    80002cf4:	85ce                	mv	a1,s3
    80002cf6:	00024097          	auipc	ra,0x24
    80002cfa:	f22080e7          	jalr	-222(ra) # 80026c18 <memmove>
    80002cfe:	01499023          	sh	s4,0(s3)
    80002d02:	02800613          	li	a2,40
    80002d06:	02c48533          	mul	a0,s1,a2
    80002d0a:	008b0693          	addi	a3,s6,8
    80002d0e:	00a685b3          	add	a1,a3,a0
    80002d12:	02cb8533          	mul	a0,s7,a2
    80002d16:	9536                	add	a0,a0,a3
    80002d18:	02cc0633          	mul	a2,s8,a2
    80002d1c:	00024097          	auipc	ra,0x24
    80002d20:	efc080e7          	jalr	-260(ra) # 80026c18 <memmove>
    80002d24:	020ab503          	ld	a0,32(s5)
    80002d28:	02800593          	li	a1,40
    80002d2c:	02b485b3          	mul	a1,s1,a1
    80002d30:	95da                	add	a1,a1,s6
    80002d32:	f588                	sd	a0,40(a1)
    80002d34:	018ab503          	ld	a0,24(s5)
    80002d38:	f188                	sd	a0,32(a1)
    80002d3a:	010ab503          	ld	a0,16(s5)
    80002d3e:	ed88                	sd	a0,24(a1)
    80002d40:	008ab503          	ld	a0,8(s5)
    80002d44:	e988                	sd	a0,16(a1)
    80002d46:	000ab503          	ld	a0,0(s5)
    80002d4a:	0019061b          	addiw	a2,s2,1
    80002d4e:	00858693          	addi	a3,a1,8
    80002d52:	e588                	sd	a0,8(a1)
    80002d54:	1ccb1123          	sh	a2,450(s6)
    80002d58:	000d3423          	sd	zero,8(s10)
    80002d5c:	04dd3823          	sd	a3,80(s10)
    80002d60:	a5f9                	j	8000342e <_ZN5alloc11collections5btree4node210Handle$LT$alloc..collections..btree..node..NodeRef$LT$alloc..collections..btree..node..marker..Mut$C$K$C$V$C$alloc..collections..btree..node..marker..Leaf$GT$$C$alloc..collections..btree..node..marker..Edge$GT$16insert_recursing17hd64522d3ac08a0cdE+0x98e>
    80002d62:	001a9513          	slli	a0,s5,0x1
    80002d66:	955e                	add	a0,a0,s7
    80002d68:	1c450513          	addi	a0,a0,452
    80002d6c:	41298c33          	sub	s8,s3,s2
    80002d70:	001c1613          	slli	a2,s8,0x1
    80002d74:	85a6                	mv	a1,s1
    80002d76:	00024097          	auipc	ra,0x24
    80002d7a:	ea2080e7          	jalr	-350(ra) # 80026c18 <memmove>
    80002d7e:	01449023          	sh	s4,0(s1)
    80002d82:	008b8a13          	addi	s4,s7,8
    80002d86:	02800613          	li	a2,40
    80002d8a:	02c90533          	mul	a0,s2,a2
    80002d8e:	00aa05b3          	add	a1,s4,a0
    80002d92:	02ca8533          	mul	a0,s5,a2
    80002d96:	9552                	add	a0,a0,s4
    80002d98:	02cc0633          	mul	a2,s8,a2
    80002d9c:	00024097          	auipc	ra,0x24
    80002da0:	e7c080e7          	jalr	-388(ra) # 80026c18 <memmove>
    80002da4:	ed043d03          	ld	s10,-304(s0)
    80002da8:	0019851b          	addiw	a0,s3,1
    80002dac:	02800c13          	li	s8,40
    80002db0:	03890833          	mul	a6,s2,s8
    80002db4:	010a0633          	add	a2,s4,a6
    80002db8:	f6843683          	ld	a3,-152(s0)
    80002dbc:	f8843703          	ld	a4,-120(s0)
    80002dc0:	f8043783          	ld	a5,-128(s0)
    80002dc4:	f7843483          	ld	s1,-136(s0)
    80002dc8:	f7043583          	ld	a1,-144(s0)
    80002dcc:	f218                	sd	a4,32(a2)
    80002dce:	ee1c                	sd	a5,24(a2)
    80002dd0:	ea04                	sd	s1,16(a2)
    80002dd2:	e60c                	sd	a1,8(a2)
    80002dd4:	e214                	sd	a3,0(a2)
    80002dd6:	1cab9123          	sh	a0,450(s7)
    80002dda:	f3843503          	ld	a0,-200(s0)
    80002dde:	f4043583          	ld	a1,-192(s0)
    80002de2:	f4843603          	ld	a2,-184(s0)
    80002de6:	f0a43423          	sd	a0,-248(s0)
    80002dea:	f0b43823          	sd	a1,-240(s0)
    80002dee:	f0c43c23          	sd	a2,-232(s0)
    80002df2:	f5043683          	ld	a3,-176(s0)
    80002df6:	f5843703          	ld	a4,-168(s0)
    80002dfa:	f6042783          	lw	a5,-160(s0)
    80002dfe:	f6441483          	lh	s1,-156(s0)
    80002e02:	f2d43023          	sd	a3,-224(s0)
    80002e06:	f2e43423          	sd	a4,-216(s0)
    80002e0a:	f2f42823          	sw	a5,-208(s0)
    80002e0e:	f2941a23          	sh	s1,-204(s0)
    80002e12:	f0941223          	sh	s1,-252(s0)
    80002e16:	f0f42023          	sw	a5,-256(s0)
    80002e1a:	eee43c23          	sd	a4,-264(s0)
    80002e1e:	eed43823          	sd	a3,-272(s0)
    80002e22:	eec43423          	sd	a2,-280(s0)
    80002e26:	eeb43023          	sd	a1,-288(s0)
    80002e2a:	eca43c23          	sd	a0,-296(s0)
    80002e2e:	000b3503          	ld	a0,0(s6)
    80002e32:	010a0933          	add	s2,s4,a6
    80002e36:	4c050263          	beqz	a0,800032fa <_ZN5alloc11collections5btree4node210Handle$LT$alloc..collections..btree..node..NodeRef$LT$alloc..collections..btree..node..marker..Mut$C$K$C$V$C$alloc..collections..btree..node..marker..Leaf$GT$$C$alloc..collections..btree..node..marker..Edge$GT$16insert_recursing17hd64522d3ac08a0cdE+0x85a>
    80002e3a:	eb243023          	sd	s2,-352(s0)
    80002e3e:	4581                	li	a1,0
    80002e40:	ede40a93          	addi	s5,s0,-290
    80002e44:	a8a1                	j	80002e9c <_ZN5alloc11collections5btree4node210Handle$LT$alloc..collections..btree..node..NodeRef$LT$alloc..collections..btree..node..marker..Mut$C$K$C$V$C$alloc..collections..btree..node..marker..Leaf$GT$$C$alloc..collections..btree..node..marker..Edge$GT$16insert_recursing17hd64522d3ac08a0cdE+0x3fc>
    80002e46:	f6441503          	lh	a0,-156(s0)
    80002e4a:	f6042583          	lw	a1,-160(s0)
    80002e4e:	f5843603          	ld	a2,-168(s0)
    80002e52:	f0a41223          	sh	a0,-252(s0)
    80002e56:	f0b42023          	sw	a1,-256(s0)
    80002e5a:	eec43c23          	sd	a2,-264(s0)
    80002e5e:	f5043503          	ld	a0,-176(s0)
    80002e62:	f4843583          	ld	a1,-184(s0)
    80002e66:	f4043603          	ld	a2,-192(s0)
    80002e6a:	f3843683          	ld	a3,-200(s0)
    80002e6e:	eea43823          	sd	a0,-272(s0)
    80002e72:	eeb43423          	sd	a1,-280(s0)
    80002e76:	eec43023          	sd	a2,-288(s0)
    80002e7a:	ecd43c23          	sd	a3,-296(s0)
    80002e7e:	00093503          	ld	a0,0(s2)
    80002e82:	8b4a                	mv	s6,s2
    80002e84:	eb843603          	ld	a2,-328(s0)
    80002e88:	ecc43423          	sd	a2,-312(s0)
    80002e8c:	ed043d03          	ld	s10,-304(s0)
    80002e90:	85ea                	mv	a1,s10
    80002e92:	8de6                	mv	s11,s9
    80002e94:	02800c13          	li	s8,40
    80002e98:	4e050d63          	beqz	a0,80003392 <_ZN5alloc11collections5btree4node210Handle$LT$alloc..collections..btree..node..NodeRef$LT$alloc..collections..btree..node..marker..Mut$C$K$C$V$C$alloc..collections..btree..node..marker..Leaf$GT$$C$alloc..collections..btree..node..marker..Edge$GT$16insert_recursing17hd64522d3ac08a0cdE+0x8f2>
    80002e9c:	5cbd1763          	bne	s10,a1,8000346a <.LBB21_55>
    80002ea0:	892a                	mv	s2,a0
    80002ea2:	1c255b83          	lhu	s7,450(a0)
    80002ea6:	1c0b5483          	lhu	s1,448(s6)
    80002eaa:	452d                	li	a0,11
    80002eac:	44abeb63          	bltu	s7,a0,80003302 <_ZN5alloc11collections5btree4node210Handle$LT$alloc..collections..btree..node..NodeRef$LT$alloc..collections..btree..node..marker..Mut$C$K$C$V$C$alloc..collections..btree..node..marker..Leaf$GT$$C$alloc..collections..btree..node..marker..Edge$GT$16insert_recursing17hd64522d3ac08a0cdE+0x862>
    80002eb0:	edb43023          	sd	s11,-320(s0)
    80002eb4:	f6840513          	addi	a0,s0,-152
    80002eb8:	85a6                	mv	a1,s1
    80002eba:	00021097          	auipc	ra,0x21
    80002ebe:	9f6080e7          	jalr	-1546(ra) # 800238b0 <_ZN5alloc11collections5btree4node10splitpoint17hab968fab914292cdE>
    80002ec2:	f6843983          	ld	s3,-152(s0)
    80002ec6:	f7043d83          	ld	s11,-144(s0)
    80002eca:	f7843a03          	ld	s4,-136(s0)
    80002ece:	1c295b83          	lhu	s7,450(s2)
    80002ed2:	24000513          	li	a0,576
    80002ed6:	45a1                	li	a1,8
    80002ed8:	00018097          	auipc	ra,0x18
    80002edc:	2e2080e7          	jalr	738(ra) # 8001b1ba <__rust_alloc>
    80002ee0:	5a050463          	beqz	a0,80003488 <.LBB21_56+0x16>
    80002ee4:	8caa                	mv	s9,a0
    80002ee6:	eda43823          	sd	s10,-304(s0)
    80002eea:	00053023          	sd	zero,0(a0)
    80002eee:	1c295503          	lhu	a0,450(s2)
    80002ef2:	fff9c593          	not	a1,s3
    80002ef6:	00b50b33          	add	s6,a0,a1
    80002efa:	1d6c9123          	sh	s6,450(s9)
    80002efe:	00890493          	addi	s1,s2,8
    80002f02:	038985b3          	mul	a1,s3,s8
    80002f06:	95a6                	add	a1,a1,s1
    80002f08:	7190                	ld	a2,32(a1)
    80002f0a:	00199693          	slli	a3,s3,0x1
    80002f0e:	96ca                	add	a3,a3,s2
    80002f10:	1c46d683          	lhu	a3,452(a3)
    80002f14:	f2c43423          	sd	a2,-216(s0)
    80002f18:	6d90                	ld	a2,24(a1)
    80002f1a:	f2c43023          	sd	a2,-224(s0)
    80002f1e:	6990                	ld	a2,16(a1)
    80002f20:	f0c43c23          	sd	a2,-232(s0)
    80002f24:	6590                	ld	a2,8(a1)
    80002f26:	f0c43823          	sd	a2,-240(s0)
    80002f2a:	618c                	ld	a1,0(a1)
    80002f2c:	f0b43423          	sd	a1,-248(s0)
    80002f30:	45b1                	li	a1,12
    80002f32:	56bb7363          	bgeu	s6,a1,80003498 <.LBB21_57>
    80002f36:	ead43c23          	sd	a3,-328(s0)
    80002f3a:	00198c13          	addi	s8,s3,1
    80002f3e:	41850533          	sub	a0,a0,s8
    80002f42:	51651563          	bne	a0,s6,8000344c <.LBB21_53>
    80002f46:	1c4c8513          	addi	a0,s9,452
    80002f4a:	001c1593          	slli	a1,s8,0x1
    80002f4e:	95ca                	add	a1,a1,s2
    80002f50:	1c458593          	addi	a1,a1,452
    80002f54:	001b1613          	slli	a2,s6,0x1
    80002f58:	00024097          	auipc	ra,0x24
    80002f5c:	cd8080e7          	jalr	-808(ra) # 80026c30 <memcpy>
    80002f60:	008c8513          	addi	a0,s9,8
    80002f64:	02800613          	li	a2,40
    80002f68:	02cc05b3          	mul	a1,s8,a2
    80002f6c:	95a6                	add	a1,a1,s1
    80002f6e:	02cb0633          	mul	a2,s6,a2
    80002f72:	00024097          	auipc	ra,0x24
    80002f76:	cbe080e7          	jalr	-834(ra) # 80026c30 <memcpy>
    80002f7a:	1d391123          	sh	s3,450(s2)
    80002f7e:	f0840593          	addi	a1,s0,-248
    80002f82:	02800613          	li	a2,40
    80002f86:	f6e40513          	addi	a0,s0,-146
    80002f8a:	00024097          	auipc	ra,0x24
    80002f8e:	ca6080e7          	jalr	-858(ra) # 80026c30 <memcpy>
    80002f92:	1c2cd483          	lhu	s1,450(s9)
    80002f96:	00148513          	addi	a0,s1,1
    80002f9a:	45b1                	li	a1,12
    80002f9c:	50b4f963          	bgeu	s1,a1,800034ae <.LBB21_58>
    80002fa0:	413b8633          	sub	a2,s7,s3
    80002fa4:	4aa61463          	bne	a2,a0,8000344c <.LBB21_53>
    80002fa8:	ed043503          	ld	a0,-304(s0)
    80002fac:	0505                	addi	a0,a0,1
    80002fae:	eca43823          	sd	a0,-304(s0)
    80002fb2:	003c1513          	slli	a0,s8,0x3
    80002fb6:	954a                	add	a0,a0,s2
    80002fb8:	1e050593          	addi	a1,a0,480
    80002fbc:	1e0c8513          	addi	a0,s9,480
    80002fc0:	060e                	slli	a2,a2,0x3
    80002fc2:	00024097          	auipc	ra,0x24
    80002fc6:	c6e080e7          	jalr	-914(ra) # 80026c30 <memcpy>
    80002fca:	4501                	li	a0,0
    80002fcc:	00351593          	slli	a1,a0,0x3
    80002fd0:	95e6                	add	a1,a1,s9
    80002fd2:	1e05b583          	ld	a1,480(a1)
    80002fd6:	00953633          	sltu	a2,a0,s1
    80002fda:	00164693          	xori	a3,a2,1
    80002fde:	1ca59023          	sh	a0,448(a1)
    80002fe2:	9532                	add	a0,a0,a2
    80002fe4:	00a4b633          	sltu	a2,s1,a0
    80002fe8:	8e55                	or	a2,a2,a3
    80002fea:	0195b023          	sd	s9,0(a1)
    80002fee:	de79                	beqz	a2,80002fcc <_ZN5alloc11collections5btree4node210Handle$LT$alloc..collections..btree..node..NodeRef$LT$alloc..collections..btree..node..marker..Mut$C$K$C$V$C$alloc..collections..btree..node..marker..Leaf$GT$$C$alloc..collections..btree..node..marker..Edge$GT$16insert_recursing17hd64522d3ac08a0cdE+0x52c>
    80002ff0:	f9441503          	lh	a0,-108(s0)
    80002ff4:	f9241583          	lh	a1,-110(s0)
    80002ff8:	f9045603          	lhu	a2,-112(s0)
    80002ffc:	f6a41223          	sh	a0,-156(s0)
    80003000:	01059513          	slli	a0,a1,0x10
    80003004:	8d51                	or	a0,a0,a2
    80003006:	f6a42023          	sw	a0,-160(s0)
    8000300a:	f8a45503          	lhu	a0,-118(s0)
    8000300e:	f8845583          	lhu	a1,-120(s0)
    80003012:	f8e45603          	lhu	a2,-114(s0)
    80003016:	f8c45683          	lhu	a3,-116(s0)
    8000301a:	0542                	slli	a0,a0,0x10
    8000301c:	8d4d                	or	a0,a0,a1
    8000301e:	01061593          	slli	a1,a2,0x10
    80003022:	8dd5                	or	a1,a1,a3
    80003024:	1582                	slli	a1,a1,0x20
    80003026:	8d4d                	or	a0,a0,a1
    80003028:	f4a43c23          	sd	a0,-168(s0)
    8000302c:	f8245503          	lhu	a0,-126(s0)
    80003030:	f8045583          	lhu	a1,-128(s0)
    80003034:	f8645603          	lhu	a2,-122(s0)
    80003038:	f8445683          	lhu	a3,-124(s0)
    8000303c:	0542                	slli	a0,a0,0x10
    8000303e:	8d4d                	or	a0,a0,a1
    80003040:	01061593          	slli	a1,a2,0x10
    80003044:	8dd5                	or	a1,a1,a3
    80003046:	1582                	slli	a1,a1,0x20
    80003048:	8d4d                	or	a0,a0,a1
    8000304a:	f4a43823          	sd	a0,-176(s0)
    8000304e:	f7a45503          	lhu	a0,-134(s0)
    80003052:	f7845583          	lhu	a1,-136(s0)
    80003056:	f7e45603          	lhu	a2,-130(s0)
    8000305a:	f7c45683          	lhu	a3,-132(s0)
    8000305e:	0542                	slli	a0,a0,0x10
    80003060:	8d4d                	or	a0,a0,a1
    80003062:	01061593          	slli	a1,a2,0x10
    80003066:	8dd5                	or	a1,a1,a3
    80003068:	1582                	slli	a1,a1,0x20
    8000306a:	8d4d                	or	a0,a0,a1
    8000306c:	f4a43423          	sd	a0,-184(s0)
    80003070:	f7245503          	lhu	a0,-142(s0)
    80003074:	f7045583          	lhu	a1,-144(s0)
    80003078:	f7645603          	lhu	a2,-138(s0)
    8000307c:	f7445683          	lhu	a3,-140(s0)
    80003080:	0542                	slli	a0,a0,0x10
    80003082:	8d4d                	or	a0,a0,a1
    80003084:	01061593          	slli	a1,a2,0x10
    80003088:	8dd5                	or	a1,a1,a3
    8000308a:	1582                	slli	a1,a1,0x20
    8000308c:	8d4d                	or	a0,a0,a1
    8000308e:	f4a43023          	sd	a0,-192(s0)
    80003092:	f6a45503          	lhu	a0,-150(s0)
    80003096:	f6845583          	lhu	a1,-152(s0)
    8000309a:	f6e45603          	lhu	a2,-146(s0)
    8000309e:	f6c45683          	lhu	a3,-148(s0)
    800030a2:	0542                	slli	a0,a0,0x10
    800030a4:	8d4d                	or	a0,a0,a1
    800030a6:	01061593          	slli	a1,a2,0x10
    800030aa:	8dd5                	or	a1,a1,a3
    800030ac:	1582                	slli	a1,a1,0x20
    800030ae:	8d4d                	or	a0,a0,a1
    800030b0:	f2a43c23          	sd	a0,-200(s0)
    800030b4:	84ca                	mv	s1,s2
    800030b6:	000d8363          	beqz	s11,800030bc <_ZN5alloc11collections5btree4node210Handle$LT$alloc..collections..btree..node..NodeRef$LT$alloc..collections..btree..node..marker..Mut$C$K$C$V$C$alloc..collections..btree..node..marker..Leaf$GT$$C$alloc..collections..btree..node..marker..Edge$GT$16insert_recursing17hd64522d3ac08a0cdE+0x61c>
    800030ba:	84e6                	mv	s1,s9
    800030bc:	1c24db83          	lhu	s7,450(s1)
    800030c0:	001a0d93          	addi	s11,s4,1
    800030c4:	001a1513          	slli	a0,s4,0x1
    800030c8:	9526                	add	a0,a0,s1
    800030ca:	1c450b13          	addi	s6,a0,452
    800030ce:	02800d13          	li	s10,40
    800030d2:	03aa0c33          	mul	s8,s4,s10
    800030d6:	414b89b3          	sub	s3,s7,s4
    800030da:	eb343823          	sd	s3,-336(s0)
    800030de:	0bbbfc63          	bgeu	s7,s11,80003196 <_ZN5alloc11collections5btree4node210Handle$LT$alloc..collections..btree..node..NodeRef$LT$alloc..collections..btree..node..marker..Mut$C$K$C$V$C$alloc..collections..btree..node..marker..Leaf$GT$$C$alloc..collections..btree..node..marker..Edge$GT$16insert_recursing17hd64522d3ac08a0cdE+0x6f6>
    800030e2:	ec843503          	ld	a0,-312(s0)
    800030e6:	00ab1023          	sh	a0,0(s6)
    800030ea:	022ad503          	lhu	a0,34(s5)
    800030ee:	020ad583          	lhu	a1,32(s5)
    800030f2:	026ad603          	lhu	a2,38(s5)
    800030f6:	024ad683          	lhu	a3,36(s5)
    800030fa:	0542                	slli	a0,a0,0x10
    800030fc:	8d4d                	or	a0,a0,a1
    800030fe:	01061593          	slli	a1,a2,0x10
    80003102:	8dd5                	or	a1,a1,a3
    80003104:	1582                	slli	a1,a1,0x20
    80003106:	8d4d                	or	a0,a0,a1
    80003108:	f8a43423          	sd	a0,-120(s0)
    8000310c:	01aad503          	lhu	a0,26(s5)
    80003110:	018ad583          	lhu	a1,24(s5)
    80003114:	01ead603          	lhu	a2,30(s5)
    80003118:	01cad683          	lhu	a3,28(s5)
    8000311c:	0542                	slli	a0,a0,0x10
    8000311e:	8d4d                	or	a0,a0,a1
    80003120:	01061593          	slli	a1,a2,0x10
    80003124:	8dd5                	or	a1,a1,a3
    80003126:	1582                	slli	a1,a1,0x20
    80003128:	8d4d                	or	a0,a0,a1
    8000312a:	f8a43023          	sd	a0,-128(s0)
    8000312e:	012ad503          	lhu	a0,18(s5)
    80003132:	010ad583          	lhu	a1,16(s5)
    80003136:	016ad603          	lhu	a2,22(s5)
    8000313a:	014ad683          	lhu	a3,20(s5)
    8000313e:	0542                	slli	a0,a0,0x10
    80003140:	8d4d                	or	a0,a0,a1
    80003142:	01061593          	slli	a1,a2,0x10
    80003146:	8dd5                	or	a1,a1,a3
    80003148:	1582                	slli	a1,a1,0x20
    8000314a:	8d4d                	or	a0,a0,a1
    8000314c:	f6a43c23          	sd	a0,-136(s0)
    80003150:	00aad503          	lhu	a0,10(s5)
    80003154:	008ad583          	lhu	a1,8(s5)
    80003158:	00ead603          	lhu	a2,14(s5)
    8000315c:	00cad683          	lhu	a3,12(s5)
    80003160:	0542                	slli	a0,a0,0x10
    80003162:	8d4d                	or	a0,a0,a1
    80003164:	01061593          	slli	a1,a2,0x10
    80003168:	8dd5                	or	a1,a1,a3
    8000316a:	1582                	slli	a1,a1,0x20
    8000316c:	8d4d                	or	a0,a0,a1
    8000316e:	f6a43823          	sd	a0,-144(s0)
    80003172:	002ad503          	lhu	a0,2(s5)
    80003176:	000ad583          	lhu	a1,0(s5)
    8000317a:	006ad603          	lhu	a2,6(s5)
    8000317e:	004ad683          	lhu	a3,4(s5)
    80003182:	0542                	slli	a0,a0,0x10
    80003184:	8d4d                	or	a0,a0,a1
    80003186:	01061593          	slli	a1,a2,0x10
    8000318a:	8dd5                	or	a1,a1,a3
    8000318c:	1582                	slli	a1,a1,0x20
    8000318e:	8d4d                	or	a0,a0,a1
    80003190:	f6a43423          	sd	a0,-152(s0)
    80003194:	a0dd                	j	8000327a <_ZN5alloc11collections5btree4node210Handle$LT$alloc..collections..btree..node..NodeRef$LT$alloc..collections..btree..node..marker..Mut$C$K$C$V$C$alloc..collections..btree..node..marker..Leaf$GT$$C$alloc..collections..btree..node..marker..Edge$GT$16insert_recursing17hd64522d3ac08a0cdE+0x7da>
    80003196:	001d9513          	slli	a0,s11,0x1
    8000319a:	9526                	add	a0,a0,s1
    8000319c:	1c450513          	addi	a0,a0,452
    800031a0:	00199613          	slli	a2,s3,0x1
    800031a4:	85da                	mv	a1,s6
    800031a6:	00024097          	auipc	ra,0x24
    800031aa:	a72080e7          	jalr	-1422(ra) # 80026c18 <memmove>
    800031ae:	ec843503          	ld	a0,-312(s0)
    800031b2:	00ab1023          	sh	a0,0(s6)
    800031b6:	022ad503          	lhu	a0,34(s5)
    800031ba:	020ad583          	lhu	a1,32(s5)
    800031be:	026ad603          	lhu	a2,38(s5)
    800031c2:	024ad683          	lhu	a3,36(s5)
    800031c6:	0542                	slli	a0,a0,0x10
    800031c8:	8d4d                	or	a0,a0,a1
    800031ca:	01061593          	slli	a1,a2,0x10
    800031ce:	8dd5                	or	a1,a1,a3
    800031d0:	1582                	slli	a1,a1,0x20
    800031d2:	8d4d                	or	a0,a0,a1
    800031d4:	f8a43423          	sd	a0,-120(s0)
    800031d8:	01aad503          	lhu	a0,26(s5)
    800031dc:	018ad583          	lhu	a1,24(s5)
    800031e0:	01ead603          	lhu	a2,30(s5)
    800031e4:	01cad683          	lhu	a3,28(s5)
    800031e8:	0542                	slli	a0,a0,0x10
    800031ea:	8d4d                	or	a0,a0,a1
    800031ec:	01061593          	slli	a1,a2,0x10
    800031f0:	8dd5                	or	a1,a1,a3
    800031f2:	1582                	slli	a1,a1,0x20
    800031f4:	8d4d                	or	a0,a0,a1
    800031f6:	f8a43023          	sd	a0,-128(s0)
    800031fa:	012ad503          	lhu	a0,18(s5)
    800031fe:	010ad583          	lhu	a1,16(s5)
    80003202:	016ad603          	lhu	a2,22(s5)
    80003206:	014ad683          	lhu	a3,20(s5)
    8000320a:	0542                	slli	a0,a0,0x10
    8000320c:	8d4d                	or	a0,a0,a1
    8000320e:	01061593          	slli	a1,a2,0x10
    80003212:	8dd5                	or	a1,a1,a3
    80003214:	1582                	slli	a1,a1,0x20
    80003216:	8d4d                	or	a0,a0,a1
    80003218:	f6a43c23          	sd	a0,-136(s0)
    8000321c:	00aad503          	lhu	a0,10(s5)
    80003220:	008ad583          	lhu	a1,8(s5)
    80003224:	00ead603          	lhu	a2,14(s5)
    80003228:	00cad683          	lhu	a3,12(s5)
    8000322c:	0542                	slli	a0,a0,0x10
    8000322e:	8d4d                	or	a0,a0,a1
    80003230:	01061593          	slli	a1,a2,0x10
    80003234:	8dd5                	or	a1,a1,a3
    80003236:	1582                	slli	a1,a1,0x20
    80003238:	8d4d                	or	a0,a0,a1
    8000323a:	f6a43823          	sd	a0,-144(s0)
    8000323e:	002ad503          	lhu	a0,2(s5)
    80003242:	000ad583          	lhu	a1,0(s5)
    80003246:	006ad603          	lhu	a2,6(s5)
    8000324a:	004ad683          	lhu	a3,4(s5)
    8000324e:	0542                	slli	a0,a0,0x10
    80003250:	8d4d                	or	a0,a0,a1
    80003252:	01061593          	slli	a1,a2,0x10
    80003256:	8dd5                	or	a1,a1,a3
    80003258:	1582                	slli	a1,a1,0x20
    8000325a:	8d4d                	or	a0,a0,a1
    8000325c:	f6a43423          	sd	a0,-152(s0)
    80003260:	00848513          	addi	a0,s1,8
    80003264:	018505b3          	add	a1,a0,s8
    80003268:	03ad8633          	mul	a2,s11,s10
    8000326c:	9532                	add	a0,a0,a2
    8000326e:	03a98633          	mul	a2,s3,s10
    80003272:	00024097          	auipc	ra,0x24
    80003276:	9a6080e7          	jalr	-1626(ra) # 80026c18 <memmove>
    8000327a:	f8843503          	ld	a0,-120(s0)
    8000327e:	018485b3          	add	a1,s1,s8
    80003282:	f588                	sd	a0,40(a1)
    80003284:	f8043503          	ld	a0,-128(s0)
    80003288:	f188                	sd	a0,32(a1)
    8000328a:	f7843503          	ld	a0,-136(s0)
    8000328e:	ed88                	sd	a0,24(a1)
    80003290:	f7043503          	ld	a0,-144(s0)
    80003294:	e988                	sd	a0,16(a1)
    80003296:	f6843503          	ld	a0,-152(s0)
    8000329a:	e588                	sd	a0,8(a1)
    8000329c:	002b8b13          	addi	s6,s7,2
    800032a0:	002a0513          	addi	a0,s4,2
    800032a4:	003d9c13          	slli	s8,s11,0x3
    800032a8:	01657f63          	bgeu	a0,s6,800032c6 <_ZN5alloc11collections5btree4node210Handle$LT$alloc..collections..btree..node..NodeRef$LT$alloc..collections..btree..node..marker..Mut$C$K$C$V$C$alloc..collections..btree..node..marker..Leaf$GT$$C$alloc..collections..btree..node..marker..Edge$GT$16insert_recursing17hd64522d3ac08a0cdE+0x826>
    800032ac:	1e048613          	addi	a2,s1,480
    800032b0:	018605b3          	add	a1,a2,s8
    800032b4:	050e                	slli	a0,a0,0x3
    800032b6:	9532                	add	a0,a0,a2
    800032b8:	eb043603          	ld	a2,-336(s0)
    800032bc:	060e                	slli	a2,a2,0x3
    800032be:	00024097          	auipc	ra,0x24
    800032c2:	95a080e7          	jalr	-1702(ra) # 80026c18 <memmove>
    800032c6:	001b8513          	addi	a0,s7,1
    800032ca:	018485b3          	add	a1,s1,s8
    800032ce:	ec043603          	ld	a2,-320(s0)
    800032d2:	1ec5b023          	sd	a2,480(a1)
    800032d6:	1ca49123          	sh	a0,450(s1)
    800032da:	b76df6e3          	bgeu	s11,s6,80002e46 <_ZN5alloc11collections5btree4node210Handle$LT$alloc..collections..btree..node..NodeRef$LT$alloc..collections..btree..node..marker..Mut$C$K$C$V$C$alloc..collections..btree..node..marker..Leaf$GT$$C$alloc..collections..btree..node..marker..Edge$GT$16insert_recursing17hd64522d3ac08a0cdE+0x3a6>
    800032de:	003a1593          	slli	a1,s4,0x3
    800032e2:	95a6                	add	a1,a1,s1
    800032e4:	1e858593          	addi	a1,a1,488
    800032e8:	6190                	ld	a2,0(a1)
    800032ea:	0a05                	addi	s4,s4,1
    800032ec:	e204                	sd	s1,0(a2)
    800032ee:	1d461023          	sh	s4,448(a2)
    800032f2:	05a1                	addi	a1,a1,8
    800032f4:	ff451ae3          	bne	a0,s4,800032e8 <_ZN5alloc11collections5btree4node210Handle$LT$alloc..collections..btree..node..NodeRef$LT$alloc..collections..btree..node..marker..Mut$C$K$C$V$C$alloc..collections..btree..node..marker..Leaf$GT$$C$alloc..collections..btree..node..marker..Edge$GT$16insert_recursing17hd64522d3ac08a0cdE+0x848>
    800032f8:	b6b9                	j	80002e46 <_ZN5alloc11collections5btree4node210Handle$LT$alloc..collections..btree..node..NodeRef$LT$alloc..collections..btree..node..marker..Mut$C$K$C$V$C$alloc..collections..btree..node..marker..Leaf$GT$$C$alloc..collections..btree..node..marker..Edge$GT$16insert_recursing17hd64522d3ac08a0cdE+0x3a6>
    800032fa:	4981                	li	s3,0
    800032fc:	ec843503          	ld	a0,-312(s0)
    80003300:	a879                	j	8000339e <_ZN5alloc11collections5btree4node210Handle$LT$alloc..collections..btree..node..NodeRef$LT$alloc..collections..btree..node..marker..Mut$C$K$C$V$C$alloc..collections..btree..node..marker..Leaf$GT$$C$alloc..collections..btree..node..marker..Edge$GT$16insert_recursing17hd64522d3ac08a0cdE+0x8fe>
    80003302:	001b8993          	addi	s3,s7,1
    80003306:	00148b13          	addi	s6,s1,1
    8000330a:	00149513          	slli	a0,s1,0x1
    8000330e:	954a                	add	a0,a0,s2
    80003310:	1c450a13          	addi	s4,a0,452
    80003314:	00349c13          	slli	s8,s1,0x3
    80003318:	003b1c93          	slli	s9,s6,0x3
    8000331c:	0b74fa63          	bgeu	s1,s7,800033d0 <_ZN5alloc11collections5btree4node210Handle$LT$alloc..collections..btree..node..NodeRef$LT$alloc..collections..btree..node..marker..Mut$C$K$C$V$C$alloc..collections..btree..node..marker..Leaf$GT$$C$alloc..collections..btree..node..marker..Edge$GT$16insert_recursing17hd64522d3ac08a0cdE+0x930>
    80003320:	001b1513          	slli	a0,s6,0x1
    80003324:	954a                	add	a0,a0,s2
    80003326:	1c450513          	addi	a0,a0,452
    8000332a:	409b8d33          	sub	s10,s7,s1
    8000332e:	001d1613          	slli	a2,s10,0x1
    80003332:	85d2                	mv	a1,s4
    80003334:	00024097          	auipc	ra,0x24
    80003338:	8e4080e7          	jalr	-1820(ra) # 80026c18 <memmove>
    8000333c:	ec843503          	ld	a0,-312(s0)
    80003340:	00aa1023          	sh	a0,0(s4)
    80003344:	02800593          	li	a1,40
    80003348:	02b48533          	mul	a0,s1,a1
    8000334c:	00890613          	addi	a2,s2,8
    80003350:	00a60a33          	add	s4,a2,a0
    80003354:	02bb0533          	mul	a0,s6,a1
    80003358:	9532                	add	a0,a0,a2
    8000335a:	02bd0633          	mul	a2,s10,a1
    8000335e:	85d2                	mv	a1,s4
    80003360:	00024097          	auipc	ra,0x24
    80003364:	8b8080e7          	jalr	-1864(ra) # 80026c18 <memmove>
    80003368:	02800613          	li	a2,40
    8000336c:	8552                	mv	a0,s4
    8000336e:	85d6                	mv	a1,s5
    80003370:	00024097          	auipc	ra,0x24
    80003374:	8c0080e7          	jalr	-1856(ra) # 80026c30 <memcpy>
    80003378:	1e090513          	addi	a0,s2,480
    8000337c:	019505b3          	add	a1,a0,s9
    80003380:	9562                	add	a0,a0,s8
    80003382:	0541                	addi	a0,a0,16
    80003384:	003d1613          	slli	a2,s10,0x3
    80003388:	00024097          	auipc	ra,0x24
    8000338c:	890080e7          	jalr	-1904(ra) # 80026c18 <memmove>
    80003390:	a08d                	j	800033f2 <_ZN5alloc11collections5btree4node210Handle$LT$alloc..collections..btree..node..NodeRef$LT$alloc..collections..btree..node..marker..Mut$C$K$C$V$C$alloc..collections..btree..node..marker..Leaf$GT$$C$alloc..collections..btree..node..marker..Edge$GT$16insert_recursing17hd64522d3ac08a0cdE+0x952>
    80003392:	8de6                	mv	s11,s9
    80003394:	89ea                	mv	s3,s10
    80003396:	8532                	mv	a0,a2
    80003398:	8b4a                	mv	s6,s2
    8000339a:	ea043903          	ld	s2,-352(s0)
    8000339e:	ea843483          	ld	s1,-344(s0)
    800033a2:	01a4b023          	sd	s10,0(s1)
    800033a6:	0164b423          	sd	s6,8(s1)
    800033aa:	00a49823          	sh	a0,16(s1)
    800033ae:	01248513          	addi	a0,s1,18
    800033b2:	ed840593          	addi	a1,s0,-296
    800033b6:	02e00613          	li	a2,46
    800033ba:	00024097          	auipc	ra,0x24
    800033be:	876080e7          	jalr	-1930(ra) # 80026c30 <memcpy>
    800033c2:	0534b023          	sd	s3,64(s1)
    800033c6:	05b4b423          	sd	s11,72(s1)
    800033ca:	0524b823          	sd	s2,80(s1)
    800033ce:	a085                	j	8000342e <_ZN5alloc11collections5btree4node210Handle$LT$alloc..collections..btree..node..NodeRef$LT$alloc..collections..btree..node..marker..Mut$C$K$C$V$C$alloc..collections..btree..node..marker..Leaf$GT$$C$alloc..collections..btree..node..marker..Edge$GT$16insert_recursing17hd64522d3ac08a0cdE+0x98e>
    800033d0:	ec843503          	ld	a0,-312(s0)
    800033d4:	00aa1023          	sh	a0,0(s4)
    800033d8:	02800513          	li	a0,40
    800033dc:	02a48533          	mul	a0,s1,a0
    800033e0:	954a                	add	a0,a0,s2
    800033e2:	0521                	addi	a0,a0,8
    800033e4:	02800613          	li	a2,40
    800033e8:	85d6                	mv	a1,s5
    800033ea:	00024097          	auipc	ra,0x24
    800033ee:	846080e7          	jalr	-1978(ra) # 80026c30 <memcpy>
    800033f2:	ea843603          	ld	a2,-344(s0)
    800033f6:	002b8513          	addi	a0,s7,2
    800033fa:	019905b3          	add	a1,s2,s9
    800033fe:	1fb5b023          	sd	s11,480(a1)
    80003402:	1d391123          	sh	s3,450(s2)
    80003406:	00ab7f63          	bgeu	s6,a0,80003424 <_ZN5alloc11collections5btree4node210Handle$LT$alloc..collections..btree..node..NodeRef$LT$alloc..collections..btree..node..marker..Mut$C$K$C$V$C$alloc..collections..btree..node..marker..Leaf$GT$$C$alloc..collections..btree..node..marker..Edge$GT$16insert_recursing17hd64522d3ac08a0cdE+0x984>
    8000340a:	01890533          	add	a0,s2,s8
    8000340e:	1e850513          	addi	a0,a0,488
    80003412:	610c                	ld	a1,0(a0)
    80003414:	0485                	addi	s1,s1,1
    80003416:	0125b023          	sd	s2,0(a1)
    8000341a:	1c959023          	sh	s1,448(a1)
    8000341e:	0521                	addi	a0,a0,8
    80003420:	fe9999e3          	bne	s3,s1,80003412 <_ZN5alloc11collections5btree4node210Handle$LT$alloc..collections..btree..node..NodeRef$LT$alloc..collections..btree..node..marker..Mut$C$K$C$V$C$alloc..collections..btree..node..marker..Leaf$GT$$C$alloc..collections..btree..node..marker..Edge$GT$16insert_recursing17hd64522d3ac08a0cdE+0x972>
    80003424:	00063423          	sd	zero,8(a2)
    80003428:	ea043503          	ld	a0,-352(s0)
    8000342c:	ea28                	sd	a0,80(a2)
    8000342e:	60f6                	ld	ra,344(sp)
    80003430:	6456                	ld	s0,336(sp)
    80003432:	64b6                	ld	s1,328(sp)
    80003434:	6916                	ld	s2,320(sp)
    80003436:	79f2                	ld	s3,312(sp)
    80003438:	7a52                	ld	s4,304(sp)
    8000343a:	7ab2                	ld	s5,296(sp)
    8000343c:	7b12                	ld	s6,288(sp)
    8000343e:	6bf2                	ld	s7,280(sp)
    80003440:	6c52                	ld	s8,272(sp)
    80003442:	6cb2                	ld	s9,264(sp)
    80003444:	6d12                	ld	s10,256(sp)
    80003446:	7dee                	ld	s11,248(sp)
    80003448:	6135                	addi	sp,sp,352
    8000344a:	8082                	ret

000000008000344c <.LBB21_53>:
    8000344c:	00024517          	auipc	a0,0x24
    80003450:	db450513          	addi	a0,a0,-588 # 80027200 <.Lanon.1896bb8148728528824850fc7e0824e2.14>

0000000080003454 <.LBB21_54>:
    80003454:	00024617          	auipc	a2,0x24
    80003458:	dd460613          	addi	a2,a2,-556 # 80027228 <.Lanon.1896bb8148728528824850fc7e0824e2.15>
    8000345c:	02800593          	li	a1,40
    80003460:	00020097          	auipc	ra,0x20
    80003464:	5c6080e7          	jalr	1478(ra) # 80023a26 <_ZN4core9panicking5panic17h92f54f473578363dE>
	...

000000008000346a <.LBB21_55>:
    8000346a:	00024517          	auipc	a0,0x24
    8000346e:	e0650513          	addi	a0,a0,-506 # 80027270 <.Lanon.1896bb8148728528824850fc7e0824e2.18>

0000000080003472 <.LBB21_56>:
    80003472:	00024617          	auipc	a2,0x24
    80003476:	e3660613          	addi	a2,a2,-458 # 800272a8 <.Lanon.1896bb8148728528824850fc7e0824e2.19>
    8000347a:	03500593          	li	a1,53
    8000347e:	00020097          	auipc	ra,0x20
    80003482:	5a8080e7          	jalr	1448(ra) # 80023a26 <_ZN4core9panicking5panic17h92f54f473578363dE>
    80003486:	0000                	unimp
    80003488:	24000513          	li	a0,576
    8000348c:	45a1                	li	a1,8
    8000348e:	00020097          	auipc	ra,0x20
    80003492:	3f8080e7          	jalr	1016(ra) # 80023886 <_ZN5alloc5alloc18handle_alloc_error17h48d9534aaf1ab1f8E>
	...

0000000080003498 <.LBB21_57>:
    80003498:	00024617          	auipc	a2,0x24
    8000349c:	da860613          	addi	a2,a2,-600 # 80027240 <.Lanon.1896bb8148728528824850fc7e0824e2.16>
    800034a0:	45ad                	li	a1,11
    800034a2:	855a                	mv	a0,s6
    800034a4:	00022097          	auipc	ra,0x22
    800034a8:	0ca080e7          	jalr	202(ra) # 8002556e <_ZN4core5slice5index24slice_end_index_len_fail17h5d1e1d044f43082eE>
	...

00000000800034ae <.LBB21_58>:
    800034ae:	00024617          	auipc	a2,0x24
    800034b2:	daa60613          	addi	a2,a2,-598 # 80027258 <.Lanon.1896bb8148728528824850fc7e0824e2.17>
    800034b6:	45b1                	li	a1,12
    800034b8:	00022097          	auipc	ra,0x22
    800034bc:	0b6080e7          	jalr	182(ra) # 8002556e <_ZN4core5slice5index24slice_end_index_len_fail17h5d1e1d044f43082eE>
    800034c0:	0000                	unimp
    800034c2:	1e000513          	li	a0,480
    800034c6:	45a1                	li	a1,8
    800034c8:	00020097          	auipc	ra,0x20
    800034cc:	3be080e7          	jalr	958(ra) # 80023886 <_ZN5alloc5alloc18handle_alloc_error17h48d9534aaf1ab1f8E>
	...

00000000800034d2 <.LBB21_59>:
    800034d2:	00024617          	auipc	a2,0x24
    800034d6:	d6e60613          	addi	a2,a2,-658 # 80027240 <.Lanon.1896bb8148728528824850fc7e0824e2.16>
    800034da:	45ad                	li	a1,11
    800034dc:	8566                	mv	a0,s9
    800034de:	00022097          	auipc	ra,0x22
    800034e2:	090080e7          	jalr	144(ra) # 8002556e <_ZN4core5slice5index24slice_end_index_len_fail17h5d1e1d044f43082eE>
	...

00000000800034e8 <_ZN5alloc11collections5btree4node29BalancingContext$LT$K$C$V$GT$15bulk_steal_left17h2342ffd4cde1f96cE>:
    800034e8:	7119                	addi	sp,sp,-128
    800034ea:	fc86                	sd	ra,120(sp)
    800034ec:	f8a2                	sd	s0,112(sp)
    800034ee:	f4a6                	sd	s1,104(sp)
    800034f0:	f0ca                	sd	s2,96(sp)
    800034f2:	ecce                	sd	s3,88(sp)
    800034f4:	e8d2                	sd	s4,80(sp)
    800034f6:	e4d6                	sd	s5,72(sp)
    800034f8:	e0da                	sd	s6,64(sp)
    800034fa:	fc5e                	sd	s7,56(sp)
    800034fc:	f862                	sd	s8,48(sp)
    800034fe:	f466                	sd	s9,40(sp)
    80003500:	f06a                	sd	s10,32(sp)
    80003502:	ec6e                	sd	s11,24(sp)
    80003504:	0100                	addi	s0,sp,128
    80003506:	8aaa                	mv	s5,a0
    80003508:	03053c03          	ld	s8,48(a0)
    8000350c:	0bac5603          	lhu	a2,186(s8)
    80003510:	89ae                	mv	s3,a1
    80003512:	00b60533          	add	a0,a2,a1
    80003516:	45ad                	li	a1,11
    80003518:	14a5e163          	bltu	a1,a0,8000365a <.LBB22_14>
    8000351c:	020abd03          	ld	s10,32(s5)
    80003520:	0bad5903          	lhu	s2,186(s10)
    80003524:	15396a63          	bltu	s2,s3,80003678 <.LBB22_16>
    80003528:	41390cb3          	sub	s9,s2,s3
    8000352c:	0b9d1d23          	sh	s9,186(s10)
    80003530:	0aac1d23          	sh	a0,186(s8)
    80003534:	008c0b13          	addi	s6,s8,8
    80003538:	00399493          	slli	s1,s3,0x3
    8000353c:	009b0533          	add	a0,s6,s1
    80003540:	f8c43823          	sd	a2,-112(s0)
    80003544:	00361b93          	slli	s7,a2,0x3
    80003548:	85da                	mv	a1,s6
    8000354a:	865e                	mv	a2,s7
    8000354c:	00023097          	auipc	ra,0x23
    80003550:	6cc080e7          	jalr	1740(ra) # 80026c18 <memmove>
    80003554:	060c0a13          	addi	s4,s8,96
    80003558:	f8943423          	sd	s1,-120(s0)
    8000355c:	009a0533          	add	a0,s4,s1
    80003560:	85d2                	mv	a1,s4
    80003562:	f9743023          	sd	s7,-128(s0)
    80003566:	865e                	mv	a2,s7
    80003568:	00023097          	auipc	ra,0x23
    8000356c:	6b0080e7          	jalr	1712(ra) # 80026c18 <memmove>
    80003570:	001c8593          	addi	a1,s9,1
    80003574:	40b90533          	sub	a0,s2,a1
    80003578:	fff98613          	addi	a2,s3,-1
    8000357c:	10c51d63          	bne	a0,a2,80003696 <.LBB22_18>
    80003580:	00359d93          	slli	s11,a1,0x3
    80003584:	008d0913          	addi	s2,s10,8
    80003588:	01b905b3          	add	a1,s2,s11
    8000358c:	00351b93          	slli	s7,a0,0x3
    80003590:	855a                	mv	a0,s6
    80003592:	865e                	mv	a2,s7
    80003594:	00023097          	auipc	ra,0x23
    80003598:	69c080e7          	jalr	1692(ra) # 80026c30 <memcpy>
    8000359c:	060d0493          	addi	s1,s10,96
    800035a0:	01b485b3          	add	a1,s1,s11
    800035a4:	8552                	mv	a0,s4
    800035a6:	865e                	mv	a2,s7
    800035a8:	00023097          	auipc	ra,0x23
    800035ac:	688080e7          	jalr	1672(ra) # 80026c30 <memcpy>
    800035b0:	003c9513          	slli	a0,s9,0x3
    800035b4:	00a905b3          	add	a1,s2,a0
    800035b8:	9526                	add	a0,a0,s1
    800035ba:	010ab603          	ld	a2,16(s5)
    800035be:	008ab683          	ld	a3,8(s5)
    800035c2:	618c                	ld	a1,0(a1)
    800035c4:	6108                	ld	a0,0(a0)
    800035c6:	060e                	slli	a2,a2,0x3
    800035c8:	9636                	add	a2,a2,a3
    800035ca:	6614                	ld	a3,8(a2)
    800035cc:	e60c                	sd	a1,8(a2)
    800035ce:	722c                	ld	a1,96(a2)
    800035d0:	f228                	sd	a0,96(a2)
    800035d2:	017c0533          	add	a0,s8,s7
    800035d6:	e514                	sd	a3,8(a0)
    800035d8:	f12c                	sd	a1,96(a0)
    800035da:	018ab583          	ld	a1,24(s5)
    800035de:	028ab503          	ld	a0,40(s5)
    800035e2:	cda1                	beqz	a1,8000363a <_ZN5alloc11collections5btree4node29BalancingContext$LT$K$C$V$GT$15bulk_steal_left17h2342ffd4cde1f96cE+0x152>
    800035e4:	c171                	beqz	a0,800036a8 <.LBB22_20>
    800035e6:	0c0c0493          	addi	s1,s8,192
    800035ea:	f8843903          	ld	s2,-120(s0)
    800035ee:	01248533          	add	a0,s1,s2
    800035f2:	f8043583          	ld	a1,-128(s0)
    800035f6:	00858613          	addi	a2,a1,8
    800035fa:	85a6                	mv	a1,s1
    800035fc:	00023097          	auipc	ra,0x23
    80003600:	61c080e7          	jalr	1564(ra) # 80026c18 <memmove>
    80003604:	01bd0533          	add	a0,s10,s11
    80003608:	0c050593          	addi	a1,a0,192
    8000360c:	8526                	mv	a0,s1
    8000360e:	864a                	mv	a2,s2
    80003610:	00023097          	auipc	ra,0x23
    80003614:	620080e7          	jalr	1568(ra) # 80026c30 <memcpy>
    80003618:	4581                	li	a1,0
    8000361a:	f9043503          	ld	a0,-112(s0)
    8000361e:	954e                	add	a0,a0,s3
    80003620:	0505                	addi	a0,a0,1
    80003622:	6090                	ld	a2,0(s1)
    80003624:	00158693          	addi	a3,a1,1
    80003628:	01863023          	sd	s8,0(a2)
    8000362c:	0ab61c23          	sh	a1,184(a2)
    80003630:	04a1                	addi	s1,s1,8
    80003632:	85b6                	mv	a1,a3
    80003634:	fed517e3          	bne	a0,a3,80003622 <_ZN5alloc11collections5btree4node29BalancingContext$LT$K$C$V$GT$15bulk_steal_left17h2342ffd4cde1f96cE+0x13a>
    80003638:	a011                	j	8000363c <_ZN5alloc11collections5btree4node29BalancingContext$LT$K$C$V$GT$15bulk_steal_left17h2342ffd4cde1f96cE+0x154>
    8000363a:	e53d                	bnez	a0,800036a8 <.LBB22_20>
    8000363c:	70e6                	ld	ra,120(sp)
    8000363e:	7446                	ld	s0,112(sp)
    80003640:	74a6                	ld	s1,104(sp)
    80003642:	7906                	ld	s2,96(sp)
    80003644:	69e6                	ld	s3,88(sp)
    80003646:	6a46                	ld	s4,80(sp)
    80003648:	6aa6                	ld	s5,72(sp)
    8000364a:	6b06                	ld	s6,64(sp)
    8000364c:	7be2                	ld	s7,56(sp)
    8000364e:	7c42                	ld	s8,48(sp)
    80003650:	7ca2                	ld	s9,40(sp)
    80003652:	7d02                	ld	s10,32(sp)
    80003654:	6de2                	ld	s11,24(sp)
    80003656:	6109                	addi	sp,sp,128
    80003658:	8082                	ret

000000008000365a <.LBB22_14>:
    8000365a:	00024517          	auipc	a0,0x24
    8000365e:	c6650513          	addi	a0,a0,-922 # 800272c0 <.Lanon.1896bb8148728528824850fc7e0824e2.20>

0000000080003662 <.LBB22_15>:
    80003662:	00024617          	auipc	a2,0x24
    80003666:	c9660613          	addi	a2,a2,-874 # 800272f8 <.Lanon.1896bb8148728528824850fc7e0824e2.21>
    8000366a:	03300593          	li	a1,51
    8000366e:	00020097          	auipc	ra,0x20
    80003672:	3b8080e7          	jalr	952(ra) # 80023a26 <_ZN4core9panicking5panic17h92f54f473578363dE>
	...

0000000080003678 <.LBB22_16>:
    80003678:	00024517          	auipc	a0,0x24
    8000367c:	c9850513          	addi	a0,a0,-872 # 80027310 <.Lanon.1896bb8148728528824850fc7e0824e2.22>

0000000080003680 <.LBB22_17>:
    80003680:	00024617          	auipc	a2,0x24
    80003684:	cb860613          	addi	a2,a2,-840 # 80027338 <.Lanon.1896bb8148728528824850fc7e0824e2.23>
    80003688:	02700593          	li	a1,39
    8000368c:	00020097          	auipc	ra,0x20
    80003690:	39a080e7          	jalr	922(ra) # 80023a26 <_ZN4core9panicking5panic17h92f54f473578363dE>
	...

0000000080003696 <.LBB22_18>:
    80003696:	00024517          	auipc	a0,0x24
    8000369a:	b6a50513          	addi	a0,a0,-1174 # 80027200 <.Lanon.1896bb8148728528824850fc7e0824e2.14>

000000008000369e <.LBB22_19>:
    8000369e:	00024617          	auipc	a2,0x24
    800036a2:	b8a60613          	addi	a2,a2,-1142 # 80027228 <.Lanon.1896bb8148728528824850fc7e0824e2.15>
    800036a6:	a809                	j	800036b8 <.LBB22_21+0x8>

00000000800036a8 <.LBB22_20>:
    800036a8:	00024517          	auipc	a0,0x24
    800036ac:	ca850513          	addi	a0,a0,-856 # 80027350 <.Lanon.1896bb8148728528824850fc7e0824e2.24>

00000000800036b0 <.LBB22_21>:
    800036b0:	00024617          	auipc	a2,0x24
    800036b4:	cc860613          	addi	a2,a2,-824 # 80027378 <.Lanon.1896bb8148728528824850fc7e0824e2.25>
    800036b8:	02800593          	li	a1,40
    800036bc:	00020097          	auipc	ra,0x20
    800036c0:	36a080e7          	jalr	874(ra) # 80023a26 <_ZN4core9panicking5panic17h92f54f473578363dE>
	...

00000000800036c6 <_ZN5alloc11collections5btree4node29BalancingContext$LT$K$C$V$GT$15bulk_steal_left17hd8030156f4bb3ccfE>:
    800036c6:	7119                	addi	sp,sp,-128
    800036c8:	fc86                	sd	ra,120(sp)
    800036ca:	f8a2                	sd	s0,112(sp)
    800036cc:	f4a6                	sd	s1,104(sp)
    800036ce:	f0ca                	sd	s2,96(sp)
    800036d0:	ecce                	sd	s3,88(sp)
    800036d2:	e8d2                	sd	s4,80(sp)
    800036d4:	e4d6                	sd	s5,72(sp)
    800036d6:	e0da                	sd	s6,64(sp)
    800036d8:	fc5e                	sd	s7,56(sp)
    800036da:	f862                	sd	s8,48(sp)
    800036dc:	f466                	sd	s9,40(sp)
    800036de:	f06a                	sd	s10,32(sp)
    800036e0:	ec6e                	sd	s11,24(sp)
    800036e2:	0100                	addi	s0,sp,128
    800036e4:	8aaa                	mv	s5,a0
    800036e6:	03053c03          	ld	s8,48(a0)
    800036ea:	0bac5603          	lhu	a2,186(s8)
    800036ee:	89ae                	mv	s3,a1
    800036f0:	00b60533          	add	a0,a2,a1
    800036f4:	45ad                	li	a1,11
    800036f6:	14a5e163          	bltu	a1,a0,80003838 <.LBB23_14>
    800036fa:	020abd03          	ld	s10,32(s5)
    800036fe:	0bad5903          	lhu	s2,186(s10)
    80003702:	15396a63          	bltu	s2,s3,80003856 <.LBB23_16>
    80003706:	41390cb3          	sub	s9,s2,s3
    8000370a:	0b9d1d23          	sh	s9,186(s10)
    8000370e:	0aac1d23          	sh	a0,186(s8)
    80003712:	008c0b13          	addi	s6,s8,8
    80003716:	00399493          	slli	s1,s3,0x3
    8000371a:	009b0533          	add	a0,s6,s1
    8000371e:	f8c43823          	sd	a2,-112(s0)
    80003722:	00361b93          	slli	s7,a2,0x3
    80003726:	85da                	mv	a1,s6
    80003728:	865e                	mv	a2,s7
    8000372a:	00023097          	auipc	ra,0x23
    8000372e:	4ee080e7          	jalr	1262(ra) # 80026c18 <memmove>
    80003732:	060c0a13          	addi	s4,s8,96
    80003736:	f8943423          	sd	s1,-120(s0)
    8000373a:	009a0533          	add	a0,s4,s1
    8000373e:	85d2                	mv	a1,s4
    80003740:	f9743023          	sd	s7,-128(s0)
    80003744:	865e                	mv	a2,s7
    80003746:	00023097          	auipc	ra,0x23
    8000374a:	4d2080e7          	jalr	1234(ra) # 80026c18 <memmove>
    8000374e:	001c8593          	addi	a1,s9,1
    80003752:	40b90533          	sub	a0,s2,a1
    80003756:	fff98613          	addi	a2,s3,-1
    8000375a:	10c51d63          	bne	a0,a2,80003874 <.LBB23_18>
    8000375e:	00359d93          	slli	s11,a1,0x3
    80003762:	008d0913          	addi	s2,s10,8
    80003766:	01b905b3          	add	a1,s2,s11
    8000376a:	00351b93          	slli	s7,a0,0x3
    8000376e:	855a                	mv	a0,s6
    80003770:	865e                	mv	a2,s7
    80003772:	00023097          	auipc	ra,0x23
    80003776:	4be080e7          	jalr	1214(ra) # 80026c30 <memcpy>
    8000377a:	060d0493          	addi	s1,s10,96
    8000377e:	01b485b3          	add	a1,s1,s11
    80003782:	8552                	mv	a0,s4
    80003784:	865e                	mv	a2,s7
    80003786:	00023097          	auipc	ra,0x23
    8000378a:	4aa080e7          	jalr	1194(ra) # 80026c30 <memcpy>
    8000378e:	003c9513          	slli	a0,s9,0x3
    80003792:	00a905b3          	add	a1,s2,a0
    80003796:	9526                	add	a0,a0,s1
    80003798:	010ab603          	ld	a2,16(s5)
    8000379c:	008ab683          	ld	a3,8(s5)
    800037a0:	618c                	ld	a1,0(a1)
    800037a2:	6108                	ld	a0,0(a0)
    800037a4:	060e                	slli	a2,a2,0x3
    800037a6:	9636                	add	a2,a2,a3
    800037a8:	6614                	ld	a3,8(a2)
    800037aa:	e60c                	sd	a1,8(a2)
    800037ac:	722c                	ld	a1,96(a2)
    800037ae:	f228                	sd	a0,96(a2)
    800037b0:	017c0533          	add	a0,s8,s7
    800037b4:	e514                	sd	a3,8(a0)
    800037b6:	f12c                	sd	a1,96(a0)
    800037b8:	018ab583          	ld	a1,24(s5)
    800037bc:	028ab503          	ld	a0,40(s5)
    800037c0:	cda1                	beqz	a1,80003818 <_ZN5alloc11collections5btree4node29BalancingContext$LT$K$C$V$GT$15bulk_steal_left17hd8030156f4bb3ccfE+0x152>
    800037c2:	c171                	beqz	a0,80003886 <.LBB23_20>
    800037c4:	0c0c0493          	addi	s1,s8,192
    800037c8:	f8843903          	ld	s2,-120(s0)
    800037cc:	01248533          	add	a0,s1,s2
    800037d0:	f8043583          	ld	a1,-128(s0)
    800037d4:	00858613          	addi	a2,a1,8
    800037d8:	85a6                	mv	a1,s1
    800037da:	00023097          	auipc	ra,0x23
    800037de:	43e080e7          	jalr	1086(ra) # 80026c18 <memmove>
    800037e2:	01bd0533          	add	a0,s10,s11
    800037e6:	0c050593          	addi	a1,a0,192
    800037ea:	8526                	mv	a0,s1
    800037ec:	864a                	mv	a2,s2
    800037ee:	00023097          	auipc	ra,0x23
    800037f2:	442080e7          	jalr	1090(ra) # 80026c30 <memcpy>
    800037f6:	4581                	li	a1,0
    800037f8:	f9043503          	ld	a0,-112(s0)
    800037fc:	954e                	add	a0,a0,s3
    800037fe:	0505                	addi	a0,a0,1
    80003800:	6090                	ld	a2,0(s1)
    80003802:	00158693          	addi	a3,a1,1
    80003806:	01863023          	sd	s8,0(a2)
    8000380a:	0ab61c23          	sh	a1,184(a2)
    8000380e:	04a1                	addi	s1,s1,8
    80003810:	85b6                	mv	a1,a3
    80003812:	fed517e3          	bne	a0,a3,80003800 <_ZN5alloc11collections5btree4node29BalancingContext$LT$K$C$V$GT$15bulk_steal_left17hd8030156f4bb3ccfE+0x13a>
    80003816:	a011                	j	8000381a <_ZN5alloc11collections5btree4node29BalancingContext$LT$K$C$V$GT$15bulk_steal_left17hd8030156f4bb3ccfE+0x154>
    80003818:	e53d                	bnez	a0,80003886 <.LBB23_20>
    8000381a:	70e6                	ld	ra,120(sp)
    8000381c:	7446                	ld	s0,112(sp)
    8000381e:	74a6                	ld	s1,104(sp)
    80003820:	7906                	ld	s2,96(sp)
    80003822:	69e6                	ld	s3,88(sp)
    80003824:	6a46                	ld	s4,80(sp)
    80003826:	6aa6                	ld	s5,72(sp)
    80003828:	6b06                	ld	s6,64(sp)
    8000382a:	7be2                	ld	s7,56(sp)
    8000382c:	7c42                	ld	s8,48(sp)
    8000382e:	7ca2                	ld	s9,40(sp)
    80003830:	7d02                	ld	s10,32(sp)
    80003832:	6de2                	ld	s11,24(sp)
    80003834:	6109                	addi	sp,sp,128
    80003836:	8082                	ret

0000000080003838 <.LBB23_14>:
    80003838:	00024517          	auipc	a0,0x24
    8000383c:	a8850513          	addi	a0,a0,-1400 # 800272c0 <.Lanon.1896bb8148728528824850fc7e0824e2.20>

0000000080003840 <.LBB23_15>:
    80003840:	00024617          	auipc	a2,0x24
    80003844:	ab860613          	addi	a2,a2,-1352 # 800272f8 <.Lanon.1896bb8148728528824850fc7e0824e2.21>
    80003848:	03300593          	li	a1,51
    8000384c:	00020097          	auipc	ra,0x20
    80003850:	1da080e7          	jalr	474(ra) # 80023a26 <_ZN4core9panicking5panic17h92f54f473578363dE>
	...

0000000080003856 <.LBB23_16>:
    80003856:	00024517          	auipc	a0,0x24
    8000385a:	aba50513          	addi	a0,a0,-1350 # 80027310 <.Lanon.1896bb8148728528824850fc7e0824e2.22>

000000008000385e <.LBB23_17>:
    8000385e:	00024617          	auipc	a2,0x24
    80003862:	ada60613          	addi	a2,a2,-1318 # 80027338 <.Lanon.1896bb8148728528824850fc7e0824e2.23>
    80003866:	02700593          	li	a1,39
    8000386a:	00020097          	auipc	ra,0x20
    8000386e:	1bc080e7          	jalr	444(ra) # 80023a26 <_ZN4core9panicking5panic17h92f54f473578363dE>
	...

0000000080003874 <.LBB23_18>:
    80003874:	00024517          	auipc	a0,0x24
    80003878:	98c50513          	addi	a0,a0,-1652 # 80027200 <.Lanon.1896bb8148728528824850fc7e0824e2.14>

000000008000387c <.LBB23_19>:
    8000387c:	00024617          	auipc	a2,0x24
    80003880:	9ac60613          	addi	a2,a2,-1620 # 80027228 <.Lanon.1896bb8148728528824850fc7e0824e2.15>
    80003884:	a809                	j	80003896 <.LBB23_21+0x8>

0000000080003886 <.LBB23_20>:
    80003886:	00024517          	auipc	a0,0x24
    8000388a:	aca50513          	addi	a0,a0,-1334 # 80027350 <.Lanon.1896bb8148728528824850fc7e0824e2.24>

000000008000388e <.LBB23_21>:
    8000388e:	00024617          	auipc	a2,0x24
    80003892:	aea60613          	addi	a2,a2,-1302 # 80027378 <.Lanon.1896bb8148728528824850fc7e0824e2.25>
    80003896:	02800593          	li	a1,40
    8000389a:	00020097          	auipc	ra,0x20
    8000389e:	18c080e7          	jalr	396(ra) # 80023a26 <_ZN4core9panicking5panic17h92f54f473578363dE>
	...

00000000800038a4 <_ZN5alloc11collections5btree4node29BalancingContext$LT$K$C$V$GT$16bulk_steal_right17h1a4bfa09eb223aa2E>:
    800038a4:	7119                	addi	sp,sp,-128
    800038a6:	fc86                	sd	ra,120(sp)
    800038a8:	f8a2                	sd	s0,112(sp)
    800038aa:	f4a6                	sd	s1,104(sp)
    800038ac:	f0ca                	sd	s2,96(sp)
    800038ae:	ecce                	sd	s3,88(sp)
    800038b0:	e8d2                	sd	s4,80(sp)
    800038b2:	e4d6                	sd	s5,72(sp)
    800038b4:	e0da                	sd	s6,64(sp)
    800038b6:	fc5e                	sd	s7,56(sp)
    800038b8:	f862                	sd	s8,48(sp)
    800038ba:	f466                	sd	s9,40(sp)
    800038bc:	f06a                	sd	s10,32(sp)
    800038be:	ec6e                	sd	s11,24(sp)
    800038c0:	0100                	addi	s0,sp,128
    800038c2:	892a                	mv	s2,a0
    800038c4:	02053c03          	ld	s8,32(a0)
    800038c8:	0bac5783          	lhu	a5,186(s8)
    800038cc:	00b78db3          	add	s11,a5,a1
    800038d0:	452d                	li	a0,11
    800038d2:	15b56e63          	bltu	a0,s11,80003a2e <.LBB24_18>
    800038d6:	89ae                	mv	s3,a1
    800038d8:	03093b83          	ld	s7,48(s2)
    800038dc:	0babd503          	lhu	a0,186(s7)
    800038e0:	16b56663          	bltu	a0,a1,80003a4c <.LBB24_20>
    800038e4:	41350ab3          	sub	s5,a0,s3
    800038e8:	0bbc1d23          	sh	s11,186(s8)
    800038ec:	0b5b9d23          	sh	s5,186(s7)
    800038f0:	fff98513          	addi	a0,s3,-1
    800038f4:	00351a13          	slli	s4,a0,0x3
    800038f8:	014b85b3          	add	a1,s7,s4
    800038fc:	01093603          	ld	a2,16(s2)
    80003900:	00893683          	ld	a3,8(s2)
    80003904:	6598                	ld	a4,8(a1)
    80003906:	71ac                	ld	a1,96(a1)
    80003908:	060e                	slli	a2,a2,0x3
    8000390a:	9636                	add	a2,a2,a3
    8000390c:	6614                	ld	a3,8(a2)
    8000390e:	e618                	sd	a4,8(a2)
    80003910:	7238                	ld	a4,96(a2)
    80003912:	f22c                	sd	a1,96(a2)
    80003914:	00379593          	slli	a1,a5,0x3
    80003918:	00bc0633          	add	a2,s8,a1
    8000391c:	e614                	sd	a3,8(a2)
    8000391e:	f8f43423          	sd	a5,-120(s0)
    80003922:	00178c93          	addi	s9,a5,1
    80003926:	419d85b3          	sub	a1,s11,s9
    8000392a:	f8c43023          	sd	a2,-128(s0)
    8000392e:	f238                	sd	a4,96(a2)
    80003930:	12b51763          	bne	a0,a1,80003a5e <.LBB24_22>
    80003934:	008b8b13          	addi	s6,s7,8
    80003938:	003c9513          	slli	a0,s9,0x3
    8000393c:	00ac0d33          	add	s10,s8,a0
    80003940:	008d0513          	addi	a0,s10,8
    80003944:	85da                	mv	a1,s6
    80003946:	8652                	mv	a2,s4
    80003948:	00023097          	auipc	ra,0x23
    8000394c:	2e8080e7          	jalr	744(ra) # 80026c30 <memcpy>
    80003950:	060b8493          	addi	s1,s7,96
    80003954:	060d0513          	addi	a0,s10,96
    80003958:	85a6                	mv	a1,s1
    8000395a:	8652                	mv	a2,s4
    8000395c:	00023097          	auipc	ra,0x23
    80003960:	2d4080e7          	jalr	724(ra) # 80026c30 <memcpy>
    80003964:	00399a13          	slli	s4,s3,0x3
    80003968:	014b05b3          	add	a1,s6,s4
    8000396c:	f9543823          	sd	s5,-112(s0)
    80003970:	0a8e                	slli	s5,s5,0x3
    80003972:	855a                	mv	a0,s6
    80003974:	8656                	mv	a2,s5
    80003976:	00023097          	auipc	ra,0x23
    8000397a:	2a2080e7          	jalr	674(ra) # 80026c18 <memmove>
    8000397e:	014485b3          	add	a1,s1,s4
    80003982:	8526                	mv	a0,s1
    80003984:	8656                	mv	a2,s5
    80003986:	00023097          	auipc	ra,0x23
    8000398a:	292080e7          	jalr	658(ra) # 80026c18 <memmove>
    8000398e:	01893583          	ld	a1,24(s2)
    80003992:	02893503          	ld	a0,40(s2)
    80003996:	cda5                	beqz	a1,80003a0e <_ZN5alloc11collections5btree4node29BalancingContext$LT$K$C$V$GT$16bulk_steal_right17h1a4bfa09eb223aa2E+0x16a>
    80003998:	cd61                	beqz	a0,80003a70 <.LBB24_24>
    8000399a:	0c0b8493          	addi	s1,s7,192
    8000399e:	0c0d0513          	addi	a0,s10,192
    800039a2:	85a6                	mv	a1,s1
    800039a4:	8652                	mv	a2,s4
    800039a6:	00023097          	auipc	ra,0x23
    800039aa:	28a080e7          	jalr	650(ra) # 80026c30 <memcpy>
    800039ae:	014485b3          	add	a1,s1,s4
    800039b2:	008a8613          	addi	a2,s5,8
    800039b6:	8526                	mv	a0,s1
    800039b8:	00023097          	auipc	ra,0x23
    800039bc:	260080e7          	jalr	608(ra) # 80026c18 <memmove>
    800039c0:	f8843503          	ld	a0,-120(s0)
    800039c4:	03b57063          	bgeu	a0,s11,800039e4 <_ZN5alloc11collections5btree4node29BalancingContext$LT$K$C$V$GT$16bulk_steal_right17h1a4bfa09eb223aa2E+0x140>
    800039c8:	f8043503          	ld	a0,-128(s0)
    800039cc:	0c850513          	addi	a0,a0,200
    800039d0:	610c                	ld	a1,0(a0)
    800039d2:	0b959c23          	sh	s9,184(a1)
    800039d6:	0c85                	addi	s9,s9,1
    800039d8:	0185b023          	sd	s8,0(a1)
    800039dc:	19fd                	addi	s3,s3,-1
    800039de:	0521                	addi	a0,a0,8
    800039e0:	fe0998e3          	bnez	s3,800039d0 <_ZN5alloc11collections5btree4node29BalancingContext$LT$K$C$V$GT$16bulk_steal_right17h1a4bfa09eb223aa2E+0x12c>
    800039e4:	557d                	li	a0,-1
    800039e6:	f9043583          	ld	a1,-112(s0)
    800039ea:	02a58363          	beq	a1,a0,80003a10 <_ZN5alloc11collections5btree4node29BalancingContext$LT$K$C$V$GT$16bulk_steal_right17h1a4bfa09eb223aa2E+0x16c>
    800039ee:	4581                	li	a1,0
    800039f0:	f9043503          	ld	a0,-112(s0)
    800039f4:	0505                	addi	a0,a0,1
    800039f6:	6090                	ld	a2,0(s1)
    800039f8:	00158693          	addi	a3,a1,1
    800039fc:	01763023          	sd	s7,0(a2)
    80003a00:	0ab61c23          	sh	a1,184(a2)
    80003a04:	04a1                	addi	s1,s1,8
    80003a06:	85b6                	mv	a1,a3
    80003a08:	fed517e3          	bne	a0,a3,800039f6 <_ZN5alloc11collections5btree4node29BalancingContext$LT$K$C$V$GT$16bulk_steal_right17h1a4bfa09eb223aa2E+0x152>
    80003a0c:	a011                	j	80003a10 <_ZN5alloc11collections5btree4node29BalancingContext$LT$K$C$V$GT$16bulk_steal_right17h1a4bfa09eb223aa2E+0x16c>
    80003a0e:	e12d                	bnez	a0,80003a70 <.LBB24_24>
    80003a10:	70e6                	ld	ra,120(sp)
    80003a12:	7446                	ld	s0,112(sp)
    80003a14:	74a6                	ld	s1,104(sp)
    80003a16:	7906                	ld	s2,96(sp)
    80003a18:	69e6                	ld	s3,88(sp)
    80003a1a:	6a46                	ld	s4,80(sp)
    80003a1c:	6aa6                	ld	s5,72(sp)
    80003a1e:	6b06                	ld	s6,64(sp)
    80003a20:	7be2                	ld	s7,56(sp)
    80003a22:	7c42                	ld	s8,48(sp)
    80003a24:	7ca2                	ld	s9,40(sp)
    80003a26:	7d02                	ld	s10,32(sp)
    80003a28:	6de2                	ld	s11,24(sp)
    80003a2a:	6109                	addi	sp,sp,128
    80003a2c:	8082                	ret

0000000080003a2e <.LBB24_18>:
    80003a2e:	00024517          	auipc	a0,0x24
    80003a32:	96250513          	addi	a0,a0,-1694 # 80027390 <.Lanon.1896bb8148728528824850fc7e0824e2.26>

0000000080003a36 <.LBB24_19>:
    80003a36:	00024617          	auipc	a2,0x24
    80003a3a:	99260613          	addi	a2,a2,-1646 # 800273c8 <.Lanon.1896bb8148728528824850fc7e0824e2.27>
    80003a3e:	03200593          	li	a1,50
    80003a42:	00020097          	auipc	ra,0x20
    80003a46:	fe4080e7          	jalr	-28(ra) # 80023a26 <_ZN4core9panicking5panic17h92f54f473578363dE>
	...

0000000080003a4c <.LBB24_20>:
    80003a4c:	00024517          	auipc	a0,0x24
    80003a50:	99450513          	addi	a0,a0,-1644 # 800273e0 <.Lanon.1896bb8148728528824850fc7e0824e2.28>

0000000080003a54 <.LBB24_21>:
    80003a54:	00024617          	auipc	a2,0x24
    80003a58:	9b460613          	addi	a2,a2,-1612 # 80027408 <.Lanon.1896bb8148728528824850fc7e0824e2.29>
    80003a5c:	a015                	j	80003a80 <.LBB24_25+0x8>

0000000080003a5e <.LBB24_22>:
    80003a5e:	00023517          	auipc	a0,0x23
    80003a62:	7a250513          	addi	a0,a0,1954 # 80027200 <.Lanon.1896bb8148728528824850fc7e0824e2.14>

0000000080003a66 <.LBB24_23>:
    80003a66:	00023617          	auipc	a2,0x23
    80003a6a:	7c260613          	addi	a2,a2,1986 # 80027228 <.Lanon.1896bb8148728528824850fc7e0824e2.15>
    80003a6e:	a809                	j	80003a80 <.LBB24_25+0x8>

0000000080003a70 <.LBB24_24>:
    80003a70:	00024517          	auipc	a0,0x24
    80003a74:	8e050513          	addi	a0,a0,-1824 # 80027350 <.Lanon.1896bb8148728528824850fc7e0824e2.24>

0000000080003a78 <.LBB24_25>:
    80003a78:	00024617          	auipc	a2,0x24
    80003a7c:	9a860613          	addi	a2,a2,-1624 # 80027420 <.Lanon.1896bb8148728528824850fc7e0824e2.30>
    80003a80:	02800593          	li	a1,40
    80003a84:	00020097          	auipc	ra,0x20
    80003a88:	fa2080e7          	jalr	-94(ra) # 80023a26 <_ZN4core9panicking5panic17h92f54f473578363dE>
	...

0000000080003a8e <_ZN5alloc11collections5btree4node29BalancingContext$LT$K$C$V$GT$16bulk_steal_right17hfc6848d899ee98f0E>:
    80003a8e:	7119                	addi	sp,sp,-128
    80003a90:	fc86                	sd	ra,120(sp)
    80003a92:	f8a2                	sd	s0,112(sp)
    80003a94:	f4a6                	sd	s1,104(sp)
    80003a96:	f0ca                	sd	s2,96(sp)
    80003a98:	ecce                	sd	s3,88(sp)
    80003a9a:	e8d2                	sd	s4,80(sp)
    80003a9c:	e4d6                	sd	s5,72(sp)
    80003a9e:	e0da                	sd	s6,64(sp)
    80003aa0:	fc5e                	sd	s7,56(sp)
    80003aa2:	f862                	sd	s8,48(sp)
    80003aa4:	f466                	sd	s9,40(sp)
    80003aa6:	f06a                	sd	s10,32(sp)
    80003aa8:	ec6e                	sd	s11,24(sp)
    80003aaa:	0100                	addi	s0,sp,128
    80003aac:	892a                	mv	s2,a0
    80003aae:	02053c03          	ld	s8,32(a0)
    80003ab2:	0bac5783          	lhu	a5,186(s8)
    80003ab6:	00b78db3          	add	s11,a5,a1
    80003aba:	452d                	li	a0,11
    80003abc:	15b56e63          	bltu	a0,s11,80003c18 <.LBB25_18>
    80003ac0:	89ae                	mv	s3,a1
    80003ac2:	03093b83          	ld	s7,48(s2)
    80003ac6:	0babd503          	lhu	a0,186(s7)
    80003aca:	16b56663          	bltu	a0,a1,80003c36 <.LBB25_20>
    80003ace:	41350ab3          	sub	s5,a0,s3
    80003ad2:	0bbc1d23          	sh	s11,186(s8)
    80003ad6:	0b5b9d23          	sh	s5,186(s7)
    80003ada:	fff98513          	addi	a0,s3,-1
    80003ade:	00351a13          	slli	s4,a0,0x3
    80003ae2:	014b85b3          	add	a1,s7,s4
    80003ae6:	01093603          	ld	a2,16(s2)
    80003aea:	00893683          	ld	a3,8(s2)
    80003aee:	6598                	ld	a4,8(a1)
    80003af0:	71ac                	ld	a1,96(a1)
    80003af2:	060e                	slli	a2,a2,0x3
    80003af4:	9636                	add	a2,a2,a3
    80003af6:	6614                	ld	a3,8(a2)
    80003af8:	e618                	sd	a4,8(a2)
    80003afa:	7238                	ld	a4,96(a2)
    80003afc:	f22c                	sd	a1,96(a2)
    80003afe:	00379593          	slli	a1,a5,0x3
    80003b02:	00bc0633          	add	a2,s8,a1
    80003b06:	e614                	sd	a3,8(a2)
    80003b08:	f8f43423          	sd	a5,-120(s0)
    80003b0c:	00178c93          	addi	s9,a5,1
    80003b10:	419d85b3          	sub	a1,s11,s9
    80003b14:	f8c43023          	sd	a2,-128(s0)
    80003b18:	f238                	sd	a4,96(a2)
    80003b1a:	12b51763          	bne	a0,a1,80003c48 <.LBB25_22>
    80003b1e:	008b8b13          	addi	s6,s7,8
    80003b22:	003c9513          	slli	a0,s9,0x3
    80003b26:	00ac0d33          	add	s10,s8,a0
    80003b2a:	008d0513          	addi	a0,s10,8
    80003b2e:	85da                	mv	a1,s6
    80003b30:	8652                	mv	a2,s4
    80003b32:	00023097          	auipc	ra,0x23
    80003b36:	0fe080e7          	jalr	254(ra) # 80026c30 <memcpy>
    80003b3a:	060b8493          	addi	s1,s7,96
    80003b3e:	060d0513          	addi	a0,s10,96
    80003b42:	85a6                	mv	a1,s1
    80003b44:	8652                	mv	a2,s4
    80003b46:	00023097          	auipc	ra,0x23
    80003b4a:	0ea080e7          	jalr	234(ra) # 80026c30 <memcpy>
    80003b4e:	00399a13          	slli	s4,s3,0x3
    80003b52:	014b05b3          	add	a1,s6,s4
    80003b56:	f9543823          	sd	s5,-112(s0)
    80003b5a:	0a8e                	slli	s5,s5,0x3
    80003b5c:	855a                	mv	a0,s6
    80003b5e:	8656                	mv	a2,s5
    80003b60:	00023097          	auipc	ra,0x23
    80003b64:	0b8080e7          	jalr	184(ra) # 80026c18 <memmove>
    80003b68:	014485b3          	add	a1,s1,s4
    80003b6c:	8526                	mv	a0,s1
    80003b6e:	8656                	mv	a2,s5
    80003b70:	00023097          	auipc	ra,0x23
    80003b74:	0a8080e7          	jalr	168(ra) # 80026c18 <memmove>
    80003b78:	01893583          	ld	a1,24(s2)
    80003b7c:	02893503          	ld	a0,40(s2)
    80003b80:	cda5                	beqz	a1,80003bf8 <_ZN5alloc11collections5btree4node29BalancingContext$LT$K$C$V$GT$16bulk_steal_right17hfc6848d899ee98f0E+0x16a>
    80003b82:	cd61                	beqz	a0,80003c5a <.LBB25_24>
    80003b84:	0c0b8493          	addi	s1,s7,192
    80003b88:	0c0d0513          	addi	a0,s10,192
    80003b8c:	85a6                	mv	a1,s1
    80003b8e:	8652                	mv	a2,s4
    80003b90:	00023097          	auipc	ra,0x23
    80003b94:	0a0080e7          	jalr	160(ra) # 80026c30 <memcpy>
    80003b98:	014485b3          	add	a1,s1,s4
    80003b9c:	008a8613          	addi	a2,s5,8
    80003ba0:	8526                	mv	a0,s1
    80003ba2:	00023097          	auipc	ra,0x23
    80003ba6:	076080e7          	jalr	118(ra) # 80026c18 <memmove>
    80003baa:	f8843503          	ld	a0,-120(s0)
    80003bae:	03b57063          	bgeu	a0,s11,80003bce <_ZN5alloc11collections5btree4node29BalancingContext$LT$K$C$V$GT$16bulk_steal_right17hfc6848d899ee98f0E+0x140>
    80003bb2:	f8043503          	ld	a0,-128(s0)
    80003bb6:	0c850513          	addi	a0,a0,200
    80003bba:	610c                	ld	a1,0(a0)
    80003bbc:	0b959c23          	sh	s9,184(a1)
    80003bc0:	0c85                	addi	s9,s9,1
    80003bc2:	0185b023          	sd	s8,0(a1)
    80003bc6:	19fd                	addi	s3,s3,-1
    80003bc8:	0521                	addi	a0,a0,8
    80003bca:	fe0998e3          	bnez	s3,80003bba <_ZN5alloc11collections5btree4node29BalancingContext$LT$K$C$V$GT$16bulk_steal_right17hfc6848d899ee98f0E+0x12c>
    80003bce:	557d                	li	a0,-1
    80003bd0:	f9043583          	ld	a1,-112(s0)
    80003bd4:	02a58363          	beq	a1,a0,80003bfa <_ZN5alloc11collections5btree4node29BalancingContext$LT$K$C$V$GT$16bulk_steal_right17hfc6848d899ee98f0E+0x16c>
    80003bd8:	4581                	li	a1,0
    80003bda:	f9043503          	ld	a0,-112(s0)
    80003bde:	0505                	addi	a0,a0,1
    80003be0:	6090                	ld	a2,0(s1)
    80003be2:	00158693          	addi	a3,a1,1
    80003be6:	01763023          	sd	s7,0(a2)
    80003bea:	0ab61c23          	sh	a1,184(a2)
    80003bee:	04a1                	addi	s1,s1,8
    80003bf0:	85b6                	mv	a1,a3
    80003bf2:	fed517e3          	bne	a0,a3,80003be0 <_ZN5alloc11collections5btree4node29BalancingContext$LT$K$C$V$GT$16bulk_steal_right17hfc6848d899ee98f0E+0x152>
    80003bf6:	a011                	j	80003bfa <_ZN5alloc11collections5btree4node29BalancingContext$LT$K$C$V$GT$16bulk_steal_right17hfc6848d899ee98f0E+0x16c>
    80003bf8:	e12d                	bnez	a0,80003c5a <.LBB25_24>
    80003bfa:	70e6                	ld	ra,120(sp)
    80003bfc:	7446                	ld	s0,112(sp)
    80003bfe:	74a6                	ld	s1,104(sp)
    80003c00:	7906                	ld	s2,96(sp)
    80003c02:	69e6                	ld	s3,88(sp)
    80003c04:	6a46                	ld	s4,80(sp)
    80003c06:	6aa6                	ld	s5,72(sp)
    80003c08:	6b06                	ld	s6,64(sp)
    80003c0a:	7be2                	ld	s7,56(sp)
    80003c0c:	7c42                	ld	s8,48(sp)
    80003c0e:	7ca2                	ld	s9,40(sp)
    80003c10:	7d02                	ld	s10,32(sp)
    80003c12:	6de2                	ld	s11,24(sp)
    80003c14:	6109                	addi	sp,sp,128
    80003c16:	8082                	ret

0000000080003c18 <.LBB25_18>:
    80003c18:	00023517          	auipc	a0,0x23
    80003c1c:	77850513          	addi	a0,a0,1912 # 80027390 <.Lanon.1896bb8148728528824850fc7e0824e2.26>

0000000080003c20 <.LBB25_19>:
    80003c20:	00023617          	auipc	a2,0x23
    80003c24:	7a860613          	addi	a2,a2,1960 # 800273c8 <.Lanon.1896bb8148728528824850fc7e0824e2.27>
    80003c28:	03200593          	li	a1,50
    80003c2c:	00020097          	auipc	ra,0x20
    80003c30:	dfa080e7          	jalr	-518(ra) # 80023a26 <_ZN4core9panicking5panic17h92f54f473578363dE>
	...

0000000080003c36 <.LBB25_20>:
    80003c36:	00023517          	auipc	a0,0x23
    80003c3a:	7aa50513          	addi	a0,a0,1962 # 800273e0 <.Lanon.1896bb8148728528824850fc7e0824e2.28>

0000000080003c3e <.LBB25_21>:
    80003c3e:	00023617          	auipc	a2,0x23
    80003c42:	7ca60613          	addi	a2,a2,1994 # 80027408 <.Lanon.1896bb8148728528824850fc7e0824e2.29>
    80003c46:	a015                	j	80003c6a <.LBB25_25+0x8>

0000000080003c48 <.LBB25_22>:
    80003c48:	00023517          	auipc	a0,0x23
    80003c4c:	5b850513          	addi	a0,a0,1464 # 80027200 <.Lanon.1896bb8148728528824850fc7e0824e2.14>

0000000080003c50 <.LBB25_23>:
    80003c50:	00023617          	auipc	a2,0x23
    80003c54:	5d860613          	addi	a2,a2,1496 # 80027228 <.Lanon.1896bb8148728528824850fc7e0824e2.15>
    80003c58:	a809                	j	80003c6a <.LBB25_25+0x8>

0000000080003c5a <.LBB25_24>:
    80003c5a:	00023517          	auipc	a0,0x23
    80003c5e:	6f650513          	addi	a0,a0,1782 # 80027350 <.Lanon.1896bb8148728528824850fc7e0824e2.24>

0000000080003c62 <.LBB25_25>:
    80003c62:	00023617          	auipc	a2,0x23
    80003c66:	7be60613          	addi	a2,a2,1982 # 80027420 <.Lanon.1896bb8148728528824850fc7e0824e2.30>
    80003c6a:	02800593          	li	a1,40
    80003c6e:	00020097          	auipc	ra,0x20
    80003c72:	db8080e7          	jalr	-584(ra) # 80023a26 <_ZN4core9panicking5panic17h92f54f473578363dE>
	...

0000000080003c78 <_ZN5alloc11collections5btree4node29BalancingContext$LT$K$C$V$GT$21merge_tracking_parent17h0ddea5589ee85823E>:
    80003c78:	7171                	addi	sp,sp,-176
    80003c7a:	f506                	sd	ra,168(sp)
    80003c7c:	f122                	sd	s0,160(sp)
    80003c7e:	ed26                	sd	s1,152(sp)
    80003c80:	e94a                	sd	s2,144(sp)
    80003c82:	e54e                	sd	s3,136(sp)
    80003c84:	e152                	sd	s4,128(sp)
    80003c86:	fcd6                	sd	s5,120(sp)
    80003c88:	f8da                	sd	s6,112(sp)
    80003c8a:	f4de                	sd	s7,104(sp)
    80003c8c:	f0e2                	sd	s8,96(sp)
    80003c8e:	ece6                	sd	s9,88(sp)
    80003c90:	e8ea                	sd	s10,80(sp)
    80003c92:	e4ee                	sd	s11,72(sp)
    80003c94:	1900                	addi	s0,sp,176
    80003c96:	02053b03          	ld	s6,32(a0)
    80003c9a:	03053903          	ld	s2,48(a0)
    80003c9e:	0bab5a03          	lhu	s4,186(s6)
    80003ca2:	0ba95c83          	lhu	s9,186(s2)
    80003ca6:	001a0493          	addi	s1,s4,1
    80003caa:	019486b3          	add	a3,s1,s9
    80003cae:	45ad                	li	a1,11
    80003cb0:	18d5ed63          	bltu	a1,a3,80003e4a <.LBB26_10>
    80003cb4:	00853b83          	ld	s7,8(a0)
    80003cb8:	610c                	ld	a1,0(a0)
    80003cba:	f8b43823          	sd	a1,-112(s0)
    80003cbe:	6910                	ld	a2,16(a0)
    80003cc0:	0babd983          	lhu	s3,186(s7)
    80003cc4:	f6d43023          	sd	a3,-160(s0)
    80003cc8:	0adb1d23          	sh	a3,186(s6)
    80003ccc:	008b8593          	addi	a1,s7,8
    80003cd0:	00361d93          	slli	s11,a2,0x3
    80003cd4:	01b58533          	add	a0,a1,s11
    80003cd8:	00053a83          	ld	s5,0(a0)
    80003cdc:	00160c13          	addi	s8,a2,1
    80003ce0:	003c1693          	slli	a3,s8,0x3
    80003ce4:	f8d43023          	sd	a3,-128(s0)
    80003ce8:	95b6                	add	a1,a1,a3
    80003cea:	fff64613          	not	a2,a2
    80003cee:	964e                	add	a2,a2,s3
    80003cf0:	060e                	slli	a2,a2,0x3
    80003cf2:	f6c43c23          	sd	a2,-136(s0)
    80003cf6:	00023097          	auipc	ra,0x23
    80003cfa:	f22080e7          	jalr	-222(ra) # 80026c18 <memmove>
    80003cfe:	008b0513          	addi	a0,s6,8
    80003d02:	f7443423          	sd	s4,-152(s0)
    80003d06:	0a0e                	slli	s4,s4,0x3
    80003d08:	014505b3          	add	a1,a0,s4
    80003d0c:	0155b023          	sd	s5,0(a1)
    80003d10:	00890593          	addi	a1,s2,8
    80003d14:	00349a93          	slli	s5,s1,0x3
    80003d18:	9556                	add	a0,a0,s5
    80003d1a:	f5943c23          	sd	s9,-168(s0)
    80003d1e:	003c9d13          	slli	s10,s9,0x3
    80003d22:	866a                	mv	a2,s10
    80003d24:	00023097          	auipc	ra,0x23
    80003d28:	f0c080e7          	jalr	-244(ra) # 80026c30 <memcpy>
    80003d2c:	060b8593          	addi	a1,s7,96
    80003d30:	01b58533          	add	a0,a1,s11
    80003d34:	f9243423          	sd	s2,-120(s0)
    80003d38:	6110                	ld	a2,0(a0)
    80003d3a:	f6c43823          	sd	a2,-144(s0)
    80003d3e:	f8043c83          	ld	s9,-128(s0)
    80003d42:	95e6                	add	a1,a1,s9
    80003d44:	f7843903          	ld	s2,-136(s0)
    80003d48:	864a                	mv	a2,s2
    80003d4a:	00023097          	auipc	ra,0x23
    80003d4e:	ece080e7          	jalr	-306(ra) # 80026c18 <memmove>
    80003d52:	060b0513          	addi	a0,s6,96
    80003d56:	f5443823          	sd	s4,-176(s0)
    80003d5a:	014505b3          	add	a1,a0,s4
    80003d5e:	8a6a                	mv	s4,s10
    80003d60:	f7043603          	ld	a2,-144(s0)
    80003d64:	e190                	sd	a2,0(a1)
    80003d66:	f8843583          	ld	a1,-120(s0)
    80003d6a:	8d56                	mv	s10,s5
    80003d6c:	8aee                	mv	s5,s11
    80003d6e:	8dae                	mv	s11,a1
    80003d70:	06058593          	addi	a1,a1,96
    80003d74:	956a                	add	a0,a0,s10
    80003d76:	8652                	mv	a2,s4
    80003d78:	00023097          	auipc	ra,0x23
    80003d7c:	eb8080e7          	jalr	-328(ra) # 80026c30 <memcpy>
    80003d80:	0c0b8593          	addi	a1,s7,192
    80003d84:	01958533          	add	a0,a1,s9
    80003d88:	95d6                	add	a1,a1,s5
    80003d8a:	05c1                	addi	a1,a1,16
    80003d8c:	864a                	mv	a2,s2
    80003d8e:	00023097          	auipc	ra,0x23
    80003d92:	e8a080e7          	jalr	-374(ra) # 80026c18 <memmove>
    80003d96:	033c7163          	bgeu	s8,s3,80003db8 <_ZN5alloc11collections5btree4node29BalancingContext$LT$K$C$V$GT$21merge_tracking_parent17h0ddea5589ee85823E+0x140>
    80003d9a:	017a8533          	add	a0,s5,s7
    80003d9e:	0c850513          	addi	a0,a0,200
    80003da2:	610c                	ld	a1,0(a0)
    80003da4:	001c0613          	addi	a2,s8,1
    80003da8:	0175b023          	sd	s7,0(a1)
    80003dac:	0b859c23          	sh	s8,184(a1)
    80003db0:	0521                	addi	a0,a0,8
    80003db2:	8c32                	mv	s8,a2
    80003db4:	fec997e3          	bne	s3,a2,80003da2 <_ZN5alloc11collections5btree4node29BalancingContext$LT$K$C$V$GT$21merge_tracking_parent17h0ddea5589ee85823E+0x12a>
    80003db8:	0bab9503          	lh	a0,186(s7)
    80003dbc:	357d                	addiw	a0,a0,-1
    80003dbe:	0aab9d23          	sh	a0,186(s7)
    80003dc2:	4aa1                	li	s5,8
    80003dc4:	4505                	li	a0,1
    80003dc6:	0c000593          	li	a1,192
    80003dca:	f9043983          	ld	s3,-112(s0)
    80003dce:	05357763          	bgeu	a0,s3,80003e1c <_ZN5alloc11collections5btree4node29BalancingContext$LT$K$C$V$GT$21merge_tracking_parent17h0ddea5589ee85823E+0x1a4>
    80003dd2:	0c0d8593          	addi	a1,s11,192
    80003dd6:	01ab0533          	add	a0,s6,s10
    80003dda:	0c050513          	addi	a0,a0,192
    80003dde:	008a0613          	addi	a2,s4,8
    80003de2:	00023097          	auipc	ra,0x23
    80003de6:	e4e080e7          	jalr	-434(ra) # 80026c30 <memcpy>
    80003dea:	12000593          	li	a1,288
    80003dee:	f6843503          	ld	a0,-152(s0)
    80003df2:	f6043603          	ld	a2,-160(s0)
    80003df6:	02c57363          	bgeu	a0,a2,80003e1c <_ZN5alloc11collections5btree4node29BalancingContext$LT$K$C$V$GT$21merge_tracking_parent17h0ddea5589ee85823E+0x1a4>
    80003dfa:	f5843503          	ld	a0,-168(s0)
    80003dfe:	0505                	addi	a0,a0,1
    80003e00:	f5043603          	ld	a2,-176(s0)
    80003e04:	965a                	add	a2,a2,s6
    80003e06:	0c860613          	addi	a2,a2,200
    80003e0a:	6214                	ld	a3,0(a2)
    80003e0c:	0a969c23          	sh	s1,184(a3)
    80003e10:	0485                	addi	s1,s1,1
    80003e12:	0166b023          	sd	s6,0(a3)
    80003e16:	157d                	addi	a0,a0,-1
    80003e18:	0621                	addi	a2,a2,8
    80003e1a:	f965                	bnez	a0,80003e0a <_ZN5alloc11collections5btree4node29BalancingContext$LT$K$C$V$GT$21merge_tracking_parent17h0ddea5589ee85823E+0x192>
    80003e1c:	856e                	mv	a0,s11
    80003e1e:	8656                	mv	a2,s5
    80003e20:	00017097          	auipc	ra,0x17
    80003e24:	3a2080e7          	jalr	930(ra) # 8001b1c2 <__rust_dealloc>
    80003e28:	854e                	mv	a0,s3
    80003e2a:	85de                	mv	a1,s7
    80003e2c:	70aa                	ld	ra,168(sp)
    80003e2e:	740a                	ld	s0,160(sp)
    80003e30:	64ea                	ld	s1,152(sp)
    80003e32:	694a                	ld	s2,144(sp)
    80003e34:	69aa                	ld	s3,136(sp)
    80003e36:	6a0a                	ld	s4,128(sp)
    80003e38:	7ae6                	ld	s5,120(sp)
    80003e3a:	7b46                	ld	s6,112(sp)
    80003e3c:	7ba6                	ld	s7,104(sp)
    80003e3e:	7c06                	ld	s8,96(sp)
    80003e40:	6ce6                	ld	s9,88(sp)
    80003e42:	6d46                	ld	s10,80(sp)
    80003e44:	6da6                	ld	s11,72(sp)
    80003e46:	614d                	addi	sp,sp,176
    80003e48:	8082                	ret

0000000080003e4a <.LBB26_10>:
    80003e4a:	00023517          	auipc	a0,0x23
    80003e4e:	69e50513          	addi	a0,a0,1694 # 800274e8 <.Lanon.1896bb8148728528824850fc7e0824e2.33>

0000000080003e52 <.LBB26_11>:
    80003e52:	00023617          	auipc	a2,0x23
    80003e56:	6c660613          	addi	a2,a2,1734 # 80027518 <.Lanon.1896bb8148728528824850fc7e0824e2.34>
    80003e5a:	02a00593          	li	a1,42
    80003e5e:	00020097          	auipc	ra,0x20
    80003e62:	bc8080e7          	jalr	-1080(ra) # 80023a26 <_ZN4core9panicking5panic17h92f54f473578363dE>
	...

0000000080003e68 <_ZN5alloc11collections5btree4node29BalancingContext$LT$K$C$V$GT$21merge_tracking_parent17hfa0cd7ac4003e1abE>:
    80003e68:	7171                	addi	sp,sp,-176
    80003e6a:	f506                	sd	ra,168(sp)
    80003e6c:	f122                	sd	s0,160(sp)
    80003e6e:	ed26                	sd	s1,152(sp)
    80003e70:	e94a                	sd	s2,144(sp)
    80003e72:	e54e                	sd	s3,136(sp)
    80003e74:	e152                	sd	s4,128(sp)
    80003e76:	fcd6                	sd	s5,120(sp)
    80003e78:	f8da                	sd	s6,112(sp)
    80003e7a:	f4de                	sd	s7,104(sp)
    80003e7c:	f0e2                	sd	s8,96(sp)
    80003e7e:	ece6                	sd	s9,88(sp)
    80003e80:	e8ea                	sd	s10,80(sp)
    80003e82:	e4ee                	sd	s11,72(sp)
    80003e84:	1900                	addi	s0,sp,176
    80003e86:	02053b03          	ld	s6,32(a0)
    80003e8a:	03053903          	ld	s2,48(a0)
    80003e8e:	0bab5a03          	lhu	s4,186(s6)
    80003e92:	0ba95c83          	lhu	s9,186(s2)
    80003e96:	001a0493          	addi	s1,s4,1
    80003e9a:	019486b3          	add	a3,s1,s9
    80003e9e:	45ad                	li	a1,11
    80003ea0:	18d5ed63          	bltu	a1,a3,8000403a <.LBB27_10>
    80003ea4:	00853b83          	ld	s7,8(a0)
    80003ea8:	610c                	ld	a1,0(a0)
    80003eaa:	f8b43823          	sd	a1,-112(s0)
    80003eae:	6910                	ld	a2,16(a0)
    80003eb0:	0babd983          	lhu	s3,186(s7)
    80003eb4:	f6d43023          	sd	a3,-160(s0)
    80003eb8:	0adb1d23          	sh	a3,186(s6)
    80003ebc:	008b8593          	addi	a1,s7,8
    80003ec0:	00361d93          	slli	s11,a2,0x3
    80003ec4:	01b58533          	add	a0,a1,s11
    80003ec8:	00053a83          	ld	s5,0(a0)
    80003ecc:	00160c13          	addi	s8,a2,1
    80003ed0:	003c1693          	slli	a3,s8,0x3
    80003ed4:	f8d43023          	sd	a3,-128(s0)
    80003ed8:	95b6                	add	a1,a1,a3
    80003eda:	fff64613          	not	a2,a2
    80003ede:	964e                	add	a2,a2,s3
    80003ee0:	060e                	slli	a2,a2,0x3
    80003ee2:	f6c43c23          	sd	a2,-136(s0)
    80003ee6:	00023097          	auipc	ra,0x23
    80003eea:	d32080e7          	jalr	-718(ra) # 80026c18 <memmove>
    80003eee:	008b0513          	addi	a0,s6,8
    80003ef2:	f7443423          	sd	s4,-152(s0)
    80003ef6:	0a0e                	slli	s4,s4,0x3
    80003ef8:	014505b3          	add	a1,a0,s4
    80003efc:	0155b023          	sd	s5,0(a1)
    80003f00:	00890593          	addi	a1,s2,8
    80003f04:	00349a93          	slli	s5,s1,0x3
    80003f08:	9556                	add	a0,a0,s5
    80003f0a:	f5943c23          	sd	s9,-168(s0)
    80003f0e:	003c9d13          	slli	s10,s9,0x3
    80003f12:	866a                	mv	a2,s10
    80003f14:	00023097          	auipc	ra,0x23
    80003f18:	d1c080e7          	jalr	-740(ra) # 80026c30 <memcpy>
    80003f1c:	060b8593          	addi	a1,s7,96
    80003f20:	01b58533          	add	a0,a1,s11
    80003f24:	f9243423          	sd	s2,-120(s0)
    80003f28:	6110                	ld	a2,0(a0)
    80003f2a:	f6c43823          	sd	a2,-144(s0)
    80003f2e:	f8043c83          	ld	s9,-128(s0)
    80003f32:	95e6                	add	a1,a1,s9
    80003f34:	f7843903          	ld	s2,-136(s0)
    80003f38:	864a                	mv	a2,s2
    80003f3a:	00023097          	auipc	ra,0x23
    80003f3e:	cde080e7          	jalr	-802(ra) # 80026c18 <memmove>
    80003f42:	060b0513          	addi	a0,s6,96
    80003f46:	f5443823          	sd	s4,-176(s0)
    80003f4a:	014505b3          	add	a1,a0,s4
    80003f4e:	8a6a                	mv	s4,s10
    80003f50:	f7043603          	ld	a2,-144(s0)
    80003f54:	e190                	sd	a2,0(a1)
    80003f56:	f8843583          	ld	a1,-120(s0)
    80003f5a:	8d56                	mv	s10,s5
    80003f5c:	8aee                	mv	s5,s11
    80003f5e:	8dae                	mv	s11,a1
    80003f60:	06058593          	addi	a1,a1,96
    80003f64:	956a                	add	a0,a0,s10
    80003f66:	8652                	mv	a2,s4
    80003f68:	00023097          	auipc	ra,0x23
    80003f6c:	cc8080e7          	jalr	-824(ra) # 80026c30 <memcpy>
    80003f70:	0c0b8593          	addi	a1,s7,192
    80003f74:	01958533          	add	a0,a1,s9
    80003f78:	95d6                	add	a1,a1,s5
    80003f7a:	05c1                	addi	a1,a1,16
    80003f7c:	864a                	mv	a2,s2
    80003f7e:	00023097          	auipc	ra,0x23
    80003f82:	c9a080e7          	jalr	-870(ra) # 80026c18 <memmove>
    80003f86:	033c7163          	bgeu	s8,s3,80003fa8 <_ZN5alloc11collections5btree4node29BalancingContext$LT$K$C$V$GT$21merge_tracking_parent17hfa0cd7ac4003e1abE+0x140>
    80003f8a:	017a8533          	add	a0,s5,s7
    80003f8e:	0c850513          	addi	a0,a0,200
    80003f92:	610c                	ld	a1,0(a0)
    80003f94:	001c0613          	addi	a2,s8,1
    80003f98:	0175b023          	sd	s7,0(a1)
    80003f9c:	0b859c23          	sh	s8,184(a1)
    80003fa0:	0521                	addi	a0,a0,8
    80003fa2:	8c32                	mv	s8,a2
    80003fa4:	fec997e3          	bne	s3,a2,80003f92 <_ZN5alloc11collections5btree4node29BalancingContext$LT$K$C$V$GT$21merge_tracking_parent17hfa0cd7ac4003e1abE+0x12a>
    80003fa8:	0bab9503          	lh	a0,186(s7)
    80003fac:	357d                	addiw	a0,a0,-1
    80003fae:	0aab9d23          	sh	a0,186(s7)
    80003fb2:	4aa1                	li	s5,8
    80003fb4:	4505                	li	a0,1
    80003fb6:	0c000593          	li	a1,192
    80003fba:	f9043983          	ld	s3,-112(s0)
    80003fbe:	05357763          	bgeu	a0,s3,8000400c <_ZN5alloc11collections5btree4node29BalancingContext$LT$K$C$V$GT$21merge_tracking_parent17hfa0cd7ac4003e1abE+0x1a4>
    80003fc2:	0c0d8593          	addi	a1,s11,192
    80003fc6:	01ab0533          	add	a0,s6,s10
    80003fca:	0c050513          	addi	a0,a0,192
    80003fce:	008a0613          	addi	a2,s4,8
    80003fd2:	00023097          	auipc	ra,0x23
    80003fd6:	c5e080e7          	jalr	-930(ra) # 80026c30 <memcpy>
    80003fda:	12000593          	li	a1,288
    80003fde:	f6843503          	ld	a0,-152(s0)
    80003fe2:	f6043603          	ld	a2,-160(s0)
    80003fe6:	02c57363          	bgeu	a0,a2,8000400c <_ZN5alloc11collections5btree4node29BalancingContext$LT$K$C$V$GT$21merge_tracking_parent17hfa0cd7ac4003e1abE+0x1a4>
    80003fea:	f5843503          	ld	a0,-168(s0)
    80003fee:	0505                	addi	a0,a0,1
    80003ff0:	f5043603          	ld	a2,-176(s0)
    80003ff4:	965a                	add	a2,a2,s6
    80003ff6:	0c860613          	addi	a2,a2,200
    80003ffa:	6214                	ld	a3,0(a2)
    80003ffc:	0a969c23          	sh	s1,184(a3)
    80004000:	0485                	addi	s1,s1,1
    80004002:	0166b023          	sd	s6,0(a3)
    80004006:	157d                	addi	a0,a0,-1
    80004008:	0621                	addi	a2,a2,8
    8000400a:	f965                	bnez	a0,80003ffa <_ZN5alloc11collections5btree4node29BalancingContext$LT$K$C$V$GT$21merge_tracking_parent17hfa0cd7ac4003e1abE+0x192>
    8000400c:	856e                	mv	a0,s11
    8000400e:	8656                	mv	a2,s5
    80004010:	00017097          	auipc	ra,0x17
    80004014:	1b2080e7          	jalr	434(ra) # 8001b1c2 <__rust_dealloc>
    80004018:	854e                	mv	a0,s3
    8000401a:	85de                	mv	a1,s7
    8000401c:	70aa                	ld	ra,168(sp)
    8000401e:	740a                	ld	s0,160(sp)
    80004020:	64ea                	ld	s1,152(sp)
    80004022:	694a                	ld	s2,144(sp)
    80004024:	69aa                	ld	s3,136(sp)
    80004026:	6a0a                	ld	s4,128(sp)
    80004028:	7ae6                	ld	s5,120(sp)
    8000402a:	7b46                	ld	s6,112(sp)
    8000402c:	7ba6                	ld	s7,104(sp)
    8000402e:	7c06                	ld	s8,96(sp)
    80004030:	6ce6                	ld	s9,88(sp)
    80004032:	6d46                	ld	s10,80(sp)
    80004034:	6da6                	ld	s11,72(sp)
    80004036:	614d                	addi	sp,sp,176
    80004038:	8082                	ret

000000008000403a <.LBB27_10>:
    8000403a:	00023517          	auipc	a0,0x23
    8000403e:	4ae50513          	addi	a0,a0,1198 # 800274e8 <.Lanon.1896bb8148728528824850fc7e0824e2.33>

0000000080004042 <.LBB27_11>:
    80004042:	00023617          	auipc	a2,0x23
    80004046:	4d660613          	addi	a2,a2,1238 # 80027518 <.Lanon.1896bb8148728528824850fc7e0824e2.34>
    8000404a:	02a00593          	li	a1,42
    8000404e:	00020097          	auipc	ra,0x20
    80004052:	9d8080e7          	jalr	-1576(ra) # 80023a26 <_ZN4core9panicking5panic17h92f54f473578363dE>
	...

0000000080004058 <_ZN5alloc11collections5btree4node29BalancingContext$LT$K$C$V$GT$25merge_tracking_child_edge17h0ea9784e4a01dd06E>:
    80004058:	7155                	addi	sp,sp,-208
    8000405a:	e586                	sd	ra,200(sp)
    8000405c:	e1a2                	sd	s0,192(sp)
    8000405e:	fd26                	sd	s1,184(sp)
    80004060:	f94a                	sd	s2,176(sp)
    80004062:	f54e                	sd	s3,168(sp)
    80004064:	f152                	sd	s4,160(sp)
    80004066:	ed56                	sd	s5,152(sp)
    80004068:	e95a                	sd	s6,144(sp)
    8000406a:	e55e                	sd	s7,136(sp)
    8000406c:	e162                	sd	s8,128(sp)
    8000406e:	fce6                	sd	s9,120(sp)
    80004070:	f8ea                	sd	s10,112(sp)
    80004072:	f4ee                	sd	s11,104(sp)
    80004074:	0980                	addi	s0,sp,208
    80004076:	7184                	ld	s1,32(a1)
    80004078:	0305ba83          	ld	s5,48(a1)
    8000407c:	0ba4db83          	lhu	s7,186(s1)
    80004080:	0baadd83          	lhu	s11,186(s5)
    80004084:	875e                	mv	a4,s7
    80004086:	c211                	beqz	a2,8000408a <_ZN5alloc11collections5btree4node29BalancingContext$LT$K$C$V$GT$25merge_tracking_child_edge17h0ea9784e4a01dd06E+0x32>
    80004088:	876e                	mv	a4,s11
    8000408a:	1ed76963          	bltu	a4,a3,8000427c <.LBB28_17>
    8000408e:	f8c43023          	sd	a2,-128(s0)
    80004092:	f8a43423          	sd	a0,-120(s0)
    80004096:	f8d43823          	sd	a3,-112(s0)
    8000409a:	001b8d13          	addi	s10,s7,1
    8000409e:	01bd06b3          	add	a3,s10,s11
    800040a2:	452d                	li	a0,11
    800040a4:	1ed56b63          	bltu	a0,a3,8000429a <.LBB28_19>
    800040a8:	0085b983          	ld	s3,8(a1)
    800040ac:	6188                	ld	a0,0(a1)
    800040ae:	f6a43c23          	sd	a0,-136(s0)
    800040b2:	6990                	ld	a2,16(a1)
    800040b4:	6d88                	ld	a0,24(a1)
    800040b6:	f4a43c23          	sd	a0,-168(s0)
    800040ba:	0ba9da03          	lhu	s4,186(s3)
    800040be:	f4d43423          	sd	a3,-184(s0)
    800040c2:	0ad49d23          	sh	a3,186(s1)
    800040c6:	00898593          	addi	a1,s3,8
    800040ca:	00361913          	slli	s2,a2,0x3
    800040ce:	01258533          	add	a0,a1,s2
    800040d2:	00053c83          	ld	s9,0(a0)
    800040d6:	00160c13          	addi	s8,a2,1
    800040da:	003c1b13          	slli	s6,s8,0x3
    800040de:	95da                	add	a1,a1,s6
    800040e0:	f7643423          	sd	s6,-152(s0)
    800040e4:	fff64613          	not	a2,a2
    800040e8:	9652                	add	a2,a2,s4
    800040ea:	060e                	slli	a2,a2,0x3
    800040ec:	f6c43823          	sd	a2,-144(s0)
    800040f0:	00023097          	auipc	ra,0x23
    800040f4:	b28080e7          	jalr	-1240(ra) # 80026c18 <memmove>
    800040f8:	f5743823          	sd	s7,-176(s0)
    800040fc:	0b8e                	slli	s7,s7,0x3
    800040fe:	00848513          	addi	a0,s1,8
    80004102:	017505b3          	add	a1,a0,s7
    80004106:	0195b023          	sd	s9,0(a1)
    8000410a:	008a8593          	addi	a1,s5,8
    8000410e:	f7a43023          	sd	s10,-160(s0)
    80004112:	003d1c93          	slli	s9,s10,0x3
    80004116:	9566                	add	a0,a0,s9
    80004118:	f5b43023          	sd	s11,-192(s0)
    8000411c:	003d9d13          	slli	s10,s11,0x3
    80004120:	866a                	mv	a2,s10
    80004122:	00023097          	auipc	ra,0x23
    80004126:	b0e080e7          	jalr	-1266(ra) # 80026c30 <memcpy>
    8000412a:	06098593          	addi	a1,s3,96
    8000412e:	01258533          	add	a0,a1,s2
    80004132:	8dd6                	mv	s11,s5
    80004134:	00053a83          	ld	s5,0(a0)
    80004138:	95da                	add	a1,a1,s6
    8000413a:	f7043b03          	ld	s6,-144(s0)
    8000413e:	865a                	mv	a2,s6
    80004140:	00023097          	auipc	ra,0x23
    80004144:	ad8080e7          	jalr	-1320(ra) # 80026c18 <memmove>
    80004148:	06048513          	addi	a0,s1,96
    8000414c:	f3743c23          	sd	s7,-200(s0)
    80004150:	017505b3          	add	a1,a0,s7
    80004154:	0155b023          	sd	s5,0(a1)
    80004158:	060d8593          	addi	a1,s11,96
    8000415c:	9566                	add	a0,a0,s9
    8000415e:	866a                	mv	a2,s10
    80004160:	00023097          	auipc	ra,0x23
    80004164:	ad0080e7          	jalr	-1328(ra) # 80026c30 <memcpy>
    80004168:	0c098593          	addi	a1,s3,192
    8000416c:	f6843503          	ld	a0,-152(s0)
    80004170:	952e                	add	a0,a0,a1
    80004172:	95ca                	add	a1,a1,s2
    80004174:	05c1                	addi	a1,a1,16
    80004176:	865a                	mv	a2,s6
    80004178:	00023097          	auipc	ra,0x23
    8000417c:	aa0080e7          	jalr	-1376(ra) # 80026c18 <memmove>
    80004180:	034c7163          	bgeu	s8,s4,800041a2 <_ZN5alloc11collections5btree4node29BalancingContext$LT$K$C$V$GT$25merge_tracking_child_edge17h0ea9784e4a01dd06E+0x14a>
    80004184:	01390533          	add	a0,s2,s3
    80004188:	0c850513          	addi	a0,a0,200
    8000418c:	610c                	ld	a1,0(a0)
    8000418e:	001c0613          	addi	a2,s8,1
    80004192:	0135b023          	sd	s3,0(a1)
    80004196:	0b859c23          	sh	s8,184(a1)
    8000419a:	0521                	addi	a0,a0,8
    8000419c:	8c32                	mv	s8,a2
    8000419e:	feca17e3          	bne	s4,a2,8000418c <_ZN5alloc11collections5btree4node29BalancingContext$LT$K$C$V$GT$25merge_tracking_child_edge17h0ea9784e4a01dd06E+0x134>
    800041a2:	0ba99503          	lh	a0,186(s3)
    800041a6:	357d                	addiw	a0,a0,-1
    800041a8:	0aa99d23          	sh	a0,186(s3)
    800041ac:	4b21                	li	s6,8
    800041ae:	4505                	li	a0,1
    800041b0:	0c000593          	li	a1,192
    800041b4:	f7843603          	ld	a2,-136(s0)
    800041b8:	08c57f63          	bgeu	a0,a2,80004256 <_ZN5alloc11collections5btree4node29BalancingContext$LT$K$C$V$GT$25merge_tracking_child_edge17h0ea9784e4a01dd06E+0x1fe>
    800041bc:	0c0d8593          	addi	a1,s11,192
    800041c0:	01948533          	add	a0,s1,s9
    800041c4:	0c050513          	addi	a0,a0,192
    800041c8:	008d0613          	addi	a2,s10,8
    800041cc:	00023097          	auipc	ra,0x23
    800041d0:	a64080e7          	jalr	-1436(ra) # 80026c30 <memcpy>
    800041d4:	12000593          	li	a1,288
    800041d8:	f5043503          	ld	a0,-176(s0)
    800041dc:	f4843603          	ld	a2,-184(s0)
    800041e0:	06c57b63          	bgeu	a0,a2,80004256 <_ZN5alloc11collections5btree4node29BalancingContext$LT$K$C$V$GT$25merge_tracking_child_edge17h0ea9784e4a01dd06E+0x1fe>
    800041e4:	f4043503          	ld	a0,-192(s0)
    800041e8:	0505                	addi	a0,a0,1
    800041ea:	f3843603          	ld	a2,-200(s0)
    800041ee:	9626                	add	a2,a2,s1
    800041f0:	0c860613          	addi	a2,a2,200
    800041f4:	f6043b83          	ld	s7,-160(s0)
    800041f8:	86de                	mv	a3,s7
    800041fa:	f9043903          	ld	s2,-112(s0)
    800041fe:	f8843983          	ld	s3,-120(s0)
    80004202:	f8043a03          	ld	s4,-128(s0)
    80004206:	f5843c03          	ld	s8,-168(s0)
    8000420a:	6218                	ld	a4,0(a2)
    8000420c:	0ad71c23          	sh	a3,184(a4)
    80004210:	0685                	addi	a3,a3,1
    80004212:	e304                	sd	s1,0(a4)
    80004214:	157d                	addi	a0,a0,-1
    80004216:	0621                	addi	a2,a2,8
    80004218:	f96d                	bnez	a0,8000420a <_ZN5alloc11collections5btree4node29BalancingContext$LT$K$C$V$GT$25merge_tracking_child_edge17h0ea9784e4a01dd06E+0x1b2>
    8000421a:	856e                	mv	a0,s11
    8000421c:	865a                	mv	a2,s6
    8000421e:	00017097          	auipc	ra,0x17
    80004222:	fa4080e7          	jalr	-92(ra) # 8001b1c2 <__rust_dealloc>
    80004226:	000a0363          	beqz	s4,8000422c <_ZN5alloc11collections5btree4node29BalancingContext$LT$K$C$V$GT$25merge_tracking_child_edge17h0ea9784e4a01dd06E+0x1d4>
    8000422a:	995e                	add	s2,s2,s7
    8000422c:	0189b023          	sd	s8,0(s3)
    80004230:	0099b423          	sd	s1,8(s3)
    80004234:	0129b823          	sd	s2,16(s3)
    80004238:	60ae                	ld	ra,200(sp)
    8000423a:	640e                	ld	s0,192(sp)
    8000423c:	74ea                	ld	s1,184(sp)
    8000423e:	794a                	ld	s2,176(sp)
    80004240:	79aa                	ld	s3,168(sp)
    80004242:	7a0a                	ld	s4,160(sp)
    80004244:	6aea                	ld	s5,152(sp)
    80004246:	6b4a                	ld	s6,144(sp)
    80004248:	6baa                	ld	s7,136(sp)
    8000424a:	6c0a                	ld	s8,128(sp)
    8000424c:	7ce6                	ld	s9,120(sp)
    8000424e:	7d46                	ld	s10,112(sp)
    80004250:	7da6                	ld	s11,104(sp)
    80004252:	6169                	addi	sp,sp,208
    80004254:	8082                	ret
    80004256:	f9043903          	ld	s2,-112(s0)
    8000425a:	f8843983          	ld	s3,-120(s0)
    8000425e:	f8043a03          	ld	s4,-128(s0)
    80004262:	f6043b83          	ld	s7,-160(s0)
    80004266:	f5843c03          	ld	s8,-168(s0)
    8000426a:	856e                	mv	a0,s11
    8000426c:	865a                	mv	a2,s6
    8000426e:	00017097          	auipc	ra,0x17
    80004272:	f54080e7          	jalr	-172(ra) # 8001b1c2 <__rust_dealloc>
    80004276:	fa0a1ae3          	bnez	s4,8000422a <_ZN5alloc11collections5btree4node29BalancingContext$LT$K$C$V$GT$25merge_tracking_child_edge17h0ea9784e4a01dd06E+0x1d2>
    8000427a:	bf4d                	j	8000422c <_ZN5alloc11collections5btree4node29BalancingContext$LT$K$C$V$GT$25merge_tracking_child_edge17h0ea9784e4a01dd06E+0x1d4>

000000008000427c <.LBB28_17>:
    8000427c:	00023517          	auipc	a0,0x23
    80004280:	1bc50513          	addi	a0,a0,444 # 80027438 <.Lanon.1896bb8148728528824850fc7e0824e2.31>

0000000080004284 <.LBB28_18>:
    80004284:	00023617          	auipc	a2,0x23
    80004288:	24c60613          	addi	a2,a2,588 # 800274d0 <.Lanon.1896bb8148728528824850fc7e0824e2.32>
    8000428c:	09100593          	li	a1,145
    80004290:	0001f097          	auipc	ra,0x1f
    80004294:	796080e7          	jalr	1942(ra) # 80023a26 <_ZN4core9panicking5panic17h92f54f473578363dE>
	...

000000008000429a <.LBB28_19>:
    8000429a:	00023517          	auipc	a0,0x23
    8000429e:	24e50513          	addi	a0,a0,590 # 800274e8 <.Lanon.1896bb8148728528824850fc7e0824e2.33>

00000000800042a2 <.LBB28_20>:
    800042a2:	00023617          	auipc	a2,0x23
    800042a6:	27660613          	addi	a2,a2,630 # 80027518 <.Lanon.1896bb8148728528824850fc7e0824e2.34>
    800042aa:	02a00593          	li	a1,42
    800042ae:	0001f097          	auipc	ra,0x1f
    800042b2:	778080e7          	jalr	1912(ra) # 80023a26 <_ZN4core9panicking5panic17h92f54f473578363dE>
	...

00000000800042b8 <_ZN5alloc11collections5btree4node29BalancingContext$LT$K$C$V$GT$25merge_tracking_child_edge17h347e9ec4c02e1444E>:
    800042b8:	7155                	addi	sp,sp,-208
    800042ba:	e586                	sd	ra,200(sp)
    800042bc:	e1a2                	sd	s0,192(sp)
    800042be:	fd26                	sd	s1,184(sp)
    800042c0:	f94a                	sd	s2,176(sp)
    800042c2:	f54e                	sd	s3,168(sp)
    800042c4:	f152                	sd	s4,160(sp)
    800042c6:	ed56                	sd	s5,152(sp)
    800042c8:	e95a                	sd	s6,144(sp)
    800042ca:	e55e                	sd	s7,136(sp)
    800042cc:	e162                	sd	s8,128(sp)
    800042ce:	fce6                	sd	s9,120(sp)
    800042d0:	f8ea                	sd	s10,112(sp)
    800042d2:	f4ee                	sd	s11,104(sp)
    800042d4:	0980                	addi	s0,sp,208
    800042d6:	7184                	ld	s1,32(a1)
    800042d8:	0305ba83          	ld	s5,48(a1)
    800042dc:	0ba4db83          	lhu	s7,186(s1)
    800042e0:	0baadd83          	lhu	s11,186(s5)
    800042e4:	875e                	mv	a4,s7
    800042e6:	c211                	beqz	a2,800042ea <_ZN5alloc11collections5btree4node29BalancingContext$LT$K$C$V$GT$25merge_tracking_child_edge17h347e9ec4c02e1444E+0x32>
    800042e8:	876e                	mv	a4,s11
    800042ea:	1ed76963          	bltu	a4,a3,800044dc <.LBB29_17>
    800042ee:	f8c43023          	sd	a2,-128(s0)
    800042f2:	f8a43423          	sd	a0,-120(s0)
    800042f6:	f8d43823          	sd	a3,-112(s0)
    800042fa:	001b8d13          	addi	s10,s7,1
    800042fe:	01bd06b3          	add	a3,s10,s11
    80004302:	452d                	li	a0,11
    80004304:	1ed56b63          	bltu	a0,a3,800044fa <.LBB29_19>
    80004308:	0085b983          	ld	s3,8(a1)
    8000430c:	6188                	ld	a0,0(a1)
    8000430e:	f6a43c23          	sd	a0,-136(s0)
    80004312:	6990                	ld	a2,16(a1)
    80004314:	6d88                	ld	a0,24(a1)
    80004316:	f4a43c23          	sd	a0,-168(s0)
    8000431a:	0ba9da03          	lhu	s4,186(s3)
    8000431e:	f4d43423          	sd	a3,-184(s0)
    80004322:	0ad49d23          	sh	a3,186(s1)
    80004326:	00898593          	addi	a1,s3,8
    8000432a:	00361913          	slli	s2,a2,0x3
    8000432e:	01258533          	add	a0,a1,s2
    80004332:	00053c83          	ld	s9,0(a0)
    80004336:	00160c13          	addi	s8,a2,1
    8000433a:	003c1b13          	slli	s6,s8,0x3
    8000433e:	95da                	add	a1,a1,s6
    80004340:	f7643423          	sd	s6,-152(s0)
    80004344:	fff64613          	not	a2,a2
    80004348:	9652                	add	a2,a2,s4
    8000434a:	060e                	slli	a2,a2,0x3
    8000434c:	f6c43823          	sd	a2,-144(s0)
    80004350:	00023097          	auipc	ra,0x23
    80004354:	8c8080e7          	jalr	-1848(ra) # 80026c18 <memmove>
    80004358:	00848513          	addi	a0,s1,8
    8000435c:	f5743823          	sd	s7,-176(s0)
    80004360:	0b8e                	slli	s7,s7,0x3
    80004362:	017505b3          	add	a1,a0,s7
    80004366:	0195b023          	sd	s9,0(a1)
    8000436a:	008a8593          	addi	a1,s5,8
    8000436e:	f7a43023          	sd	s10,-160(s0)
    80004372:	003d1c93          	slli	s9,s10,0x3
    80004376:	9566                	add	a0,a0,s9
    80004378:	f5b43023          	sd	s11,-192(s0)
    8000437c:	003d9d13          	slli	s10,s11,0x3
    80004380:	866a                	mv	a2,s10
    80004382:	00023097          	auipc	ra,0x23
    80004386:	8ae080e7          	jalr	-1874(ra) # 80026c30 <memcpy>
    8000438a:	06098593          	addi	a1,s3,96
    8000438e:	01258533          	add	a0,a1,s2
    80004392:	8dd6                	mv	s11,s5
    80004394:	00053a83          	ld	s5,0(a0)
    80004398:	95da                	add	a1,a1,s6
    8000439a:	f7043b03          	ld	s6,-144(s0)
    8000439e:	865a                	mv	a2,s6
    800043a0:	00023097          	auipc	ra,0x23
    800043a4:	878080e7          	jalr	-1928(ra) # 80026c18 <memmove>
    800043a8:	06048513          	addi	a0,s1,96
    800043ac:	f3743c23          	sd	s7,-200(s0)
    800043b0:	017505b3          	add	a1,a0,s7
    800043b4:	0155b023          	sd	s5,0(a1)
    800043b8:	060d8593          	addi	a1,s11,96
    800043bc:	9566                	add	a0,a0,s9
    800043be:	866a                	mv	a2,s10
    800043c0:	00023097          	auipc	ra,0x23
    800043c4:	870080e7          	jalr	-1936(ra) # 80026c30 <memcpy>
    800043c8:	0c098593          	addi	a1,s3,192
    800043cc:	f6843503          	ld	a0,-152(s0)
    800043d0:	952e                	add	a0,a0,a1
    800043d2:	95ca                	add	a1,a1,s2
    800043d4:	05c1                	addi	a1,a1,16
    800043d6:	865a                	mv	a2,s6
    800043d8:	00023097          	auipc	ra,0x23
    800043dc:	840080e7          	jalr	-1984(ra) # 80026c18 <memmove>
    800043e0:	034c7163          	bgeu	s8,s4,80004402 <_ZN5alloc11collections5btree4node29BalancingContext$LT$K$C$V$GT$25merge_tracking_child_edge17h347e9ec4c02e1444E+0x14a>
    800043e4:	01390533          	add	a0,s2,s3
    800043e8:	0c850513          	addi	a0,a0,200
    800043ec:	610c                	ld	a1,0(a0)
    800043ee:	001c0613          	addi	a2,s8,1
    800043f2:	0135b023          	sd	s3,0(a1)
    800043f6:	0b859c23          	sh	s8,184(a1)
    800043fa:	0521                	addi	a0,a0,8
    800043fc:	8c32                	mv	s8,a2
    800043fe:	feca17e3          	bne	s4,a2,800043ec <_ZN5alloc11collections5btree4node29BalancingContext$LT$K$C$V$GT$25merge_tracking_child_edge17h347e9ec4c02e1444E+0x134>
    80004402:	0ba99503          	lh	a0,186(s3)
    80004406:	357d                	addiw	a0,a0,-1
    80004408:	0aa99d23          	sh	a0,186(s3)
    8000440c:	4b21                	li	s6,8
    8000440e:	4505                	li	a0,1
    80004410:	0c000593          	li	a1,192
    80004414:	f7843603          	ld	a2,-136(s0)
    80004418:	08c57f63          	bgeu	a0,a2,800044b6 <_ZN5alloc11collections5btree4node29BalancingContext$LT$K$C$V$GT$25merge_tracking_child_edge17h347e9ec4c02e1444E+0x1fe>
    8000441c:	0c0d8593          	addi	a1,s11,192
    80004420:	01948533          	add	a0,s1,s9
    80004424:	0c050513          	addi	a0,a0,192
    80004428:	008d0613          	addi	a2,s10,8
    8000442c:	00023097          	auipc	ra,0x23
    80004430:	804080e7          	jalr	-2044(ra) # 80026c30 <memcpy>
    80004434:	12000593          	li	a1,288
    80004438:	f5043503          	ld	a0,-176(s0)
    8000443c:	f4843603          	ld	a2,-184(s0)
    80004440:	06c57b63          	bgeu	a0,a2,800044b6 <_ZN5alloc11collections5btree4node29BalancingContext$LT$K$C$V$GT$25merge_tracking_child_edge17h347e9ec4c02e1444E+0x1fe>
    80004444:	f4043503          	ld	a0,-192(s0)
    80004448:	0505                	addi	a0,a0,1
    8000444a:	f3843603          	ld	a2,-200(s0)
    8000444e:	9626                	add	a2,a2,s1
    80004450:	0c860613          	addi	a2,a2,200
    80004454:	f6043b83          	ld	s7,-160(s0)
    80004458:	86de                	mv	a3,s7
    8000445a:	f9043903          	ld	s2,-112(s0)
    8000445e:	f8843983          	ld	s3,-120(s0)
    80004462:	f8043a03          	ld	s4,-128(s0)
    80004466:	f5843c03          	ld	s8,-168(s0)
    8000446a:	6218                	ld	a4,0(a2)
    8000446c:	0ad71c23          	sh	a3,184(a4)
    80004470:	0685                	addi	a3,a3,1
    80004472:	e304                	sd	s1,0(a4)
    80004474:	157d                	addi	a0,a0,-1
    80004476:	0621                	addi	a2,a2,8
    80004478:	f96d                	bnez	a0,8000446a <_ZN5alloc11collections5btree4node29BalancingContext$LT$K$C$V$GT$25merge_tracking_child_edge17h347e9ec4c02e1444E+0x1b2>
    8000447a:	856e                	mv	a0,s11
    8000447c:	865a                	mv	a2,s6
    8000447e:	00017097          	auipc	ra,0x17
    80004482:	d44080e7          	jalr	-700(ra) # 8001b1c2 <__rust_dealloc>
    80004486:	000a0363          	beqz	s4,8000448c <_ZN5alloc11collections5btree4node29BalancingContext$LT$K$C$V$GT$25merge_tracking_child_edge17h347e9ec4c02e1444E+0x1d4>
    8000448a:	995e                	add	s2,s2,s7
    8000448c:	0189b023          	sd	s8,0(s3)
    80004490:	0099b423          	sd	s1,8(s3)
    80004494:	0129b823          	sd	s2,16(s3)
    80004498:	60ae                	ld	ra,200(sp)
    8000449a:	640e                	ld	s0,192(sp)
    8000449c:	74ea                	ld	s1,184(sp)
    8000449e:	794a                	ld	s2,176(sp)
    800044a0:	79aa                	ld	s3,168(sp)
    800044a2:	7a0a                	ld	s4,160(sp)
    800044a4:	6aea                	ld	s5,152(sp)
    800044a6:	6b4a                	ld	s6,144(sp)
    800044a8:	6baa                	ld	s7,136(sp)
    800044aa:	6c0a                	ld	s8,128(sp)
    800044ac:	7ce6                	ld	s9,120(sp)
    800044ae:	7d46                	ld	s10,112(sp)
    800044b0:	7da6                	ld	s11,104(sp)
    800044b2:	6169                	addi	sp,sp,208
    800044b4:	8082                	ret
    800044b6:	f9043903          	ld	s2,-112(s0)
    800044ba:	f8843983          	ld	s3,-120(s0)
    800044be:	f8043a03          	ld	s4,-128(s0)
    800044c2:	f6043b83          	ld	s7,-160(s0)
    800044c6:	f5843c03          	ld	s8,-168(s0)
    800044ca:	856e                	mv	a0,s11
    800044cc:	865a                	mv	a2,s6
    800044ce:	00017097          	auipc	ra,0x17
    800044d2:	cf4080e7          	jalr	-780(ra) # 8001b1c2 <__rust_dealloc>
    800044d6:	fa0a1ae3          	bnez	s4,8000448a <_ZN5alloc11collections5btree4node29BalancingContext$LT$K$C$V$GT$25merge_tracking_child_edge17h347e9ec4c02e1444E+0x1d2>
    800044da:	bf4d                	j	8000448c <_ZN5alloc11collections5btree4node29BalancingContext$LT$K$C$V$GT$25merge_tracking_child_edge17h347e9ec4c02e1444E+0x1d4>

00000000800044dc <.LBB29_17>:
    800044dc:	00023517          	auipc	a0,0x23
    800044e0:	f5c50513          	addi	a0,a0,-164 # 80027438 <.Lanon.1896bb8148728528824850fc7e0824e2.31>

00000000800044e4 <.LBB29_18>:
    800044e4:	00023617          	auipc	a2,0x23
    800044e8:	fec60613          	addi	a2,a2,-20 # 800274d0 <.Lanon.1896bb8148728528824850fc7e0824e2.32>
    800044ec:	09100593          	li	a1,145
    800044f0:	0001f097          	auipc	ra,0x1f
    800044f4:	536080e7          	jalr	1334(ra) # 80023a26 <_ZN4core9panicking5panic17h92f54f473578363dE>
	...

00000000800044fa <.LBB29_19>:
    800044fa:	00023517          	auipc	a0,0x23
    800044fe:	fee50513          	addi	a0,a0,-18 # 800274e8 <.Lanon.1896bb8148728528824850fc7e0824e2.33>

0000000080004502 <.LBB29_20>:
    80004502:	00023617          	auipc	a2,0x23
    80004506:	01660613          	addi	a2,a2,22 # 80027518 <.Lanon.1896bb8148728528824850fc7e0824e2.34>
    8000450a:	02a00593          	li	a1,42
    8000450e:	0001f097          	auipc	ra,0x1f
    80004512:	518080e7          	jalr	1304(ra) # 80023a26 <_ZN4core9panicking5panic17h92f54f473578363dE>
	...

0000000080004518 <_ZN5alloc11collections5btree6remove259_$LT$impl$u20$alloc..collections..btree..node..Handle$LT$alloc..collections..btree..node..NodeRef$LT$alloc..collections..btree..node..marker..Mut$C$K$C$V$C$alloc..collections..btree..node..marker..Leaf$GT$$C$alloc..collections..btree..node..marker..KV$GT$$GT$14remove_leaf_kv17h0a811426753c7a2cE>:
    80004518:	7111                	addi	sp,sp,-256
    8000451a:	fd86                	sd	ra,248(sp)
    8000451c:	f9a2                	sd	s0,240(sp)
    8000451e:	f5a6                	sd	s1,232(sp)
    80004520:	f1ca                	sd	s2,224(sp)
    80004522:	edce                	sd	s3,216(sp)
    80004524:	e9d2                	sd	s4,208(sp)
    80004526:	e5d6                	sd	s5,200(sp)
    80004528:	e1da                	sd	s6,192(sp)
    8000452a:	fd5e                	sd	s7,184(sp)
    8000452c:	f962                	sd	s8,176(sp)
    8000452e:	f566                	sd	s9,168(sp)
    80004530:	f16a                	sd	s10,160(sp)
    80004532:	ed6e                	sd	s11,152(sp)
    80004534:	0200                	addi	s0,sp,256
    80004536:	0085bb83          	ld	s7,8(a1)
    8000453a:	0105ba03          	ld	s4,16(a1)
    8000453e:	8932                	mv	s2,a2
    80004540:	89aa                	mv	s3,a0
    80004542:	0005bc03          	ld	s8,0(a1)
    80004546:	0babdd03          	lhu	s10,186(s7)
    8000454a:	003a1b13          	slli	s6,s4,0x3
    8000454e:	008b8593          	addi	a1,s7,8
    80004552:	01658533          	add	a0,a1,s6
    80004556:	00053a83          	ld	s5,0(a0)
    8000455a:	001a0c93          	addi	s9,s4,1
    8000455e:	003c9d93          	slli	s11,s9,0x3
    80004562:	95ee                	add	a1,a1,s11
    80004564:	fffa4613          	not	a2,s4
    80004568:	966a                	add	a2,a2,s10
    8000456a:	00361493          	slli	s1,a2,0x3
    8000456e:	8626                	mv	a2,s1
    80004570:	00022097          	auipc	ra,0x22
    80004574:	6a8080e7          	jalr	1704(ra) # 80026c18 <memmove>
    80004578:	060b8593          	addi	a1,s7,96
    8000457c:	01658533          	add	a0,a1,s6
    80004580:	00053b03          	ld	s6,0(a0)
    80004584:	95ee                	add	a1,a1,s11
    80004586:	8626                	mv	a2,s1
    80004588:	00022097          	auipc	ra,0x22
    8000458c:	690080e7          	jalr	1680(ra) # 80026c18 <memmove>
    80004590:	fffd0513          	addi	a0,s10,-1
    80004594:	03051593          	slli	a1,a0,0x30
    80004598:	0305d613          	srli	a2,a1,0x30
    8000459c:	4595                	li	a1,5
    8000459e:	0aab9d23          	sh	a0,186(s7)
    800045a2:	22b67363          	bgeu	a2,a1,800047c8 <_ZN5alloc11collections5btree6remove259_$LT$impl$u20$alloc..collections..btree..node..Handle$LT$alloc..collections..btree..node..NodeRef$LT$alloc..collections..btree..node..marker..Mut$C$K$C$V$C$alloc..collections..btree..node..marker..Leaf$GT$$C$alloc..collections..btree..node..marker..KV$GT$$GT$14remove_leaf_kv17h0a811426753c7a2cE+0x2b0>
    800045a6:	000bb503          	ld	a0,0(s7)
    800045aa:	cd6d                	beqz	a0,800046a4 <_ZN5alloc11collections5btree6remove259_$LT$impl$u20$alloc..collections..btree..node..Handle$LT$alloc..collections..btree..node..NodeRef$LT$alloc..collections..btree..node..marker..Mut$C$K$C$V$C$alloc..collections..btree..node..marker..Leaf$GT$$C$alloc..collections..btree..node..marker..KV$GT$$GT$14remove_leaf_kv17h0a811426753c7a2cE+0x18c>
    800045ac:	0b8bd683          	lhu	a3,184(s7)
    800045b0:	001c0593          	addi	a1,s8,1
    800045b4:	c2b1                	beqz	a3,800045f8 <_ZN5alloc11collections5btree6remove259_$LT$impl$u20$alloc..collections..btree..node..Handle$LT$alloc..collections..btree..node..NodeRef$LT$alloc..collections..btree..node..marker..Mut$C$K$C$V$C$alloc..collections..btree..node..marker..Leaf$GT$$C$alloc..collections..btree..node..marker..KV$GT$$GT$14remove_leaf_kv17h0a811426753c7a2cE+0xe0>
    800045b6:	fff68713          	addi	a4,a3,-1
    800045ba:	00371693          	slli	a3,a4,0x3
    800045be:	96aa                	add	a3,a3,a0
    800045c0:	62f4                	ld	a3,192(a3)
    800045c2:	0ba6d783          	lhu	a5,186(a3)
    800045c6:	963e                	add	a2,a2,a5
    800045c8:	0605                	addi	a2,a2,1
    800045ca:	47b1                	li	a5,12
    800045cc:	06f67b63          	bgeu	a2,a5,80004642 <_ZN5alloc11collections5btree6remove259_$LT$impl$u20$alloc..collections..btree..node..Handle$LT$alloc..collections..btree..node..NodeRef$LT$alloc..collections..btree..node..marker..Mut$C$K$C$V$C$alloc..collections..btree..node..marker..Leaf$GT$$C$alloc..collections..btree..node..marker..KV$GT$$GT$14remove_leaf_kv17h0a811426753c7a2cE+0x12a>
    800045d0:	f4b43823          	sd	a1,-176(s0)
    800045d4:	f4a43c23          	sd	a0,-168(s0)
    800045d8:	f6e43023          	sd	a4,-160(s0)
    800045dc:	f7843423          	sd	s8,-152(s0)
    800045e0:	f6d43823          	sd	a3,-144(s0)
    800045e4:	f7843c23          	sd	s8,-136(s0)
    800045e8:	f9743023          	sd	s7,-128(s0)
    800045ec:	f0040513          	addi	a0,s0,-256
    800045f0:	f5040593          	addi	a1,s0,-176
    800045f4:	4605                	li	a2,1
    800045f6:	a081                	j	80004636 <_ZN5alloc11collections5btree6remove259_$LT$impl$u20$alloc..collections..btree..node..Handle$LT$alloc..collections..btree..node..NodeRef$LT$alloc..collections..btree..node..marker..Mut$C$K$C$V$C$alloc..collections..btree..node..marker..Leaf$GT$$C$alloc..collections..btree..node..marker..KV$GT$$GT$14remove_leaf_kv17h0a811426753c7a2cE+0x11e>
    800045f8:	0ba55683          	lhu	a3,186(a0)
    800045fc:	26068763          	beqz	a3,8000486a <.LBB36_34>
    80004600:	6574                	ld	a3,200(a0)
    80004602:	0ba6d703          	lhu	a4,186(a3)
    80004606:	963a                	add	a2,a2,a4
    80004608:	0605                	addi	a2,a2,1
    8000460a:	4731                	li	a4,12
    8000460c:	06e67763          	bgeu	a2,a4,8000467a <_ZN5alloc11collections5btree6remove259_$LT$impl$u20$alloc..collections..btree..node..Handle$LT$alloc..collections..btree..node..NodeRef$LT$alloc..collections..btree..node..marker..Mut$C$K$C$V$C$alloc..collections..btree..node..marker..Leaf$GT$$C$alloc..collections..btree..node..marker..KV$GT$$GT$14remove_leaf_kv17h0a811426753c7a2cE+0x162>
    80004610:	f4b43823          	sd	a1,-176(s0)
    80004614:	f4a43c23          	sd	a0,-168(s0)
    80004618:	f6043023          	sd	zero,-160(s0)
    8000461c:	f7843423          	sd	s8,-152(s0)
    80004620:	f7743823          	sd	s7,-144(s0)
    80004624:	f7843c23          	sd	s8,-136(s0)
    80004628:	f8d43023          	sd	a3,-128(s0)
    8000462c:	f0040513          	addi	a0,s0,-256
    80004630:	f5040593          	addi	a1,s0,-176
    80004634:	4601                	li	a2,0
    80004636:	86d2                	mv	a3,s4
    80004638:	00000097          	auipc	ra,0x0
    8000463c:	c80080e7          	jalr	-896(ra) # 800042b8 <_ZN5alloc11collections5btree4node29BalancingContext$LT$K$C$V$GT$25merge_tracking_child_edge17h347e9ec4c02e1444E>
    80004640:	a885                	j	800046b0 <_ZN5alloc11collections5btree6remove259_$LT$impl$u20$alloc..collections..btree..node..Handle$LT$alloc..collections..btree..node..NodeRef$LT$alloc..collections..btree..node..marker..Mut$C$K$C$V$C$alloc..collections..btree..node..marker..Leaf$GT$$C$alloc..collections..btree..node..marker..KV$GT$$GT$14remove_leaf_kv17h0a811426753c7a2cE+0x198>
    80004642:	f4b43823          	sd	a1,-176(s0)
    80004646:	f4a43c23          	sd	a0,-168(s0)
    8000464a:	f6e43023          	sd	a4,-160(s0)
    8000464e:	f7843423          	sd	s8,-152(s0)
    80004652:	f6d43823          	sd	a3,-144(s0)
    80004656:	f7843c23          	sd	s8,-136(s0)
    8000465a:	f9743023          	sd	s7,-128(s0)
    8000465e:	f5040513          	addi	a0,s0,-176
    80004662:	4585                	li	a1,1
    80004664:	fffff097          	auipc	ra,0xfffff
    80004668:	e84080e7          	jalr	-380(ra) # 800034e8 <_ZN5alloc11collections5btree4node29BalancingContext$LT$K$C$V$GT$15bulk_steal_left17h2342ffd4cde1f96cE>
    8000466c:	f1843023          	sd	s8,-256(s0)
    80004670:	f1743423          	sd	s7,-248(s0)
    80004674:	f1943823          	sd	s9,-240(s0)
    80004678:	a825                	j	800046b0 <_ZN5alloc11collections5btree6remove259_$LT$impl$u20$alloc..collections..btree..node..Handle$LT$alloc..collections..btree..node..NodeRef$LT$alloc..collections..btree..node..marker..Mut$C$K$C$V$C$alloc..collections..btree..node..marker..Leaf$GT$$C$alloc..collections..btree..node..marker..KV$GT$$GT$14remove_leaf_kv17h0a811426753c7a2cE+0x198>
    8000467a:	f4b43823          	sd	a1,-176(s0)
    8000467e:	f4a43c23          	sd	a0,-168(s0)
    80004682:	f6043023          	sd	zero,-160(s0)
    80004686:	f7843423          	sd	s8,-152(s0)
    8000468a:	f7743823          	sd	s7,-144(s0)
    8000468e:	f7843c23          	sd	s8,-136(s0)
    80004692:	f8d43023          	sd	a3,-128(s0)
    80004696:	f5040513          	addi	a0,s0,-176
    8000469a:	4585                	li	a1,1
    8000469c:	fffff097          	auipc	ra,0xfffff
    800046a0:	208080e7          	jalr	520(ra) # 800038a4 <_ZN5alloc11collections5btree4node29BalancingContext$LT$K$C$V$GT$16bulk_steal_right17h1a4bfa09eb223aa2E>
    800046a4:	f1843023          	sd	s8,-256(s0)
    800046a8:	f1743423          	sd	s7,-248(s0)
    800046ac:	f1443823          	sd	s4,-240(s0)
    800046b0:	f0843b83          	ld	s7,-248(s0)
    800046b4:	f0043c03          	ld	s8,-256(s0)
    800046b8:	000bb583          	ld	a1,0(s7)
    800046bc:	f1043a03          	ld	s4,-240(s0)
    800046c0:	10058463          	beqz	a1,800047c8 <_ZN5alloc11collections5btree6remove259_$LT$impl$u20$alloc..collections..btree..node..Handle$LT$alloc..collections..btree..node..NodeRef$LT$alloc..collections..btree..node..marker..Mut$C$K$C$V$C$alloc..collections..btree..node..marker..Leaf$GT$$C$alloc..collections..btree..node..marker..KV$GT$$GT$14remove_leaf_kv17h0a811426753c7a2cE+0x2b0>
    800046c4:	001c0493          	addi	s1,s8,1
    800046c8:	4c91                	li	s9,4
    800046ca:	4d31                	li	s10,12
    800046cc:	4d95                	li	s11,5
    800046ce:	a0a9                	j	80004718 <_ZN5alloc11collections5btree6remove259_$LT$impl$u20$alloc..collections..btree..node..Handle$LT$alloc..collections..btree..node..NodeRef$LT$alloc..collections..btree..node..marker..Mut$C$K$C$V$C$alloc..collections..btree..node..marker..Leaf$GT$$C$alloc..collections..btree..node..marker..KV$GT$$GT$14remove_leaf_kv17h0a811426753c7a2cE+0x200>
    800046d0:	f4843503          	ld	a0,-184(s0)
    800046d4:	f4043583          	ld	a1,-192(s0)
    800046d8:	f3843603          	ld	a2,-200(s0)
    800046dc:	f8a43023          	sd	a0,-128(s0)
    800046e0:	f6b43c23          	sd	a1,-136(s0)
    800046e4:	f6c43823          	sd	a2,-144(s0)
    800046e8:	f3043503          	ld	a0,-208(s0)
    800046ec:	f2843583          	ld	a1,-216(s0)
    800046f0:	f2043603          	ld	a2,-224(s0)
    800046f4:	f1843683          	ld	a3,-232(s0)
    800046f8:	f6a43423          	sd	a0,-152(s0)
    800046fc:	f6b43023          	sd	a1,-160(s0)
    80004700:	f4c43c23          	sd	a2,-168(s0)
    80004704:	f4d43823          	sd	a3,-176(s0)
    80004708:	f5040513          	addi	a0,s0,-176
    8000470c:	fffff097          	auipc	ra,0xfffff
    80004710:	75c080e7          	jalr	1884(ra) # 80003e68 <_ZN5alloc11collections5btree4node29BalancingContext$LT$K$C$V$GT$21merge_tracking_parent17hfa0cd7ac4003e1abE>
    80004714:	84aa                	mv	s1,a0
    80004716:	c9cd                	beqz	a1,800047c8 <_ZN5alloc11collections5btree6remove259_$LT$impl$u20$alloc..collections..btree..node..Handle$LT$alloc..collections..btree..node..NodeRef$LT$alloc..collections..btree..node..marker..Mut$C$K$C$V$C$alloc..collections..btree..node..marker..Leaf$GT$$C$alloc..collections..btree..node..marker..KV$GT$$GT$14remove_leaf_kv17h0a811426753c7a2cE+0x2b0>
    80004718:	0ba5d503          	lhu	a0,186(a1)
    8000471c:	0aace663          	bltu	s9,a0,800047c8 <_ZN5alloc11collections5btree6remove259_$LT$impl$u20$alloc..collections..btree..node..Handle$LT$alloc..collections..btree..node..NodeRef$LT$alloc..collections..btree..node..marker..Mut$C$K$C$V$C$alloc..collections..btree..node..marker..Leaf$GT$$C$alloc..collections..btree..node..marker..KV$GT$$GT$14remove_leaf_kv17h0a811426753c7a2cE+0x2b0>
    80004720:	6190                	ld	a2,0(a1)
    80004722:	ce59                	beqz	a2,800047c0 <_ZN5alloc11collections5btree6remove259_$LT$impl$u20$alloc..collections..btree..node..Handle$LT$alloc..collections..btree..node..NodeRef$LT$alloc..collections..btree..node..marker..Mut$C$K$C$V$C$alloc..collections..btree..node..marker..Leaf$GT$$C$alloc..collections..btree..node..marker..KV$GT$$GT$14remove_leaf_kv17h0a811426753c7a2cE+0x2a8>
    80004724:	0b85d703          	lhu	a4,184(a1)
    80004728:	00148693          	addi	a3,s1,1
    8000472c:	c731                	beqz	a4,80004778 <_ZN5alloc11collections5btree6remove259_$LT$impl$u20$alloc..collections..btree..node..Handle$LT$alloc..collections..btree..node..NodeRef$LT$alloc..collections..btree..node..marker..Mut$C$K$C$V$C$alloc..collections..btree..node..marker..Leaf$GT$$C$alloc..collections..btree..node..marker..KV$GT$$GT$14remove_leaf_kv17h0a811426753c7a2cE+0x260>
    8000472e:	177d                	addi	a4,a4,-1
    80004730:	00371793          	slli	a5,a4,0x3
    80004734:	97b2                	add	a5,a5,a2
    80004736:	63fc                	ld	a5,192(a5)
    80004738:	f0d43c23          	sd	a3,-232(s0)
    8000473c:	f2c43023          	sd	a2,-224(s0)
    80004740:	f2e43423          	sd	a4,-216(s0)
    80004744:	f2943823          	sd	s1,-208(s0)
    80004748:	f2f43c23          	sd	a5,-200(s0)
    8000474c:	f4943023          	sd	s1,-192(s0)
    80004750:	f4b43423          	sd	a1,-184(s0)
    80004754:	0ba7d583          	lhu	a1,186(a5)
    80004758:	95aa                	add	a1,a1,a0
    8000475a:	0585                	addi	a1,a1,1
    8000475c:	f7a5eae3          	bltu	a1,s10,800046d0 <_ZN5alloc11collections5btree6remove259_$LT$impl$u20$alloc..collections..btree..node..Handle$LT$alloc..collections..btree..node..NodeRef$LT$alloc..collections..btree..node..marker..Mut$C$K$C$V$C$alloc..collections..btree..node..marker..Leaf$GT$$C$alloc..collections..btree..node..marker..KV$GT$$GT$14remove_leaf_kv17h0a811426753c7a2cE+0x1b8>
    80004760:	40ad85b3          	sub	a1,s11,a0
    80004764:	f1840513          	addi	a0,s0,-232
    80004768:	fffff097          	auipc	ra,0xfffff
    8000476c:	d80080e7          	jalr	-640(ra) # 800034e8 <_ZN5alloc11collections5btree4node29BalancingContext$LT$K$C$V$GT$15bulk_steal_left17h2342ffd4cde1f96cE>
    80004770:	4581                	li	a1,0
    80004772:	fa0013e3          	bnez	zero,80004718 <_ZN5alloc11collections5btree6remove259_$LT$impl$u20$alloc..collections..btree..node..Handle$LT$alloc..collections..btree..node..NodeRef$LT$alloc..collections..btree..node..marker..Mut$C$K$C$V$C$alloc..collections..btree..node..marker..Leaf$GT$$C$alloc..collections..btree..node..marker..KV$GT$$GT$14remove_leaf_kv17h0a811426753c7a2cE+0x200>
    80004776:	a889                	j	800047c8 <_ZN5alloc11collections5btree6remove259_$LT$impl$u20$alloc..collections..btree..node..Handle$LT$alloc..collections..btree..node..NodeRef$LT$alloc..collections..btree..node..marker..Mut$C$K$C$V$C$alloc..collections..btree..node..marker..Leaf$GT$$C$alloc..collections..btree..node..marker..KV$GT$$GT$14remove_leaf_kv17h0a811426753c7a2cE+0x2b0>
    80004778:	0ba65703          	lhu	a4,186(a2)
    8000477c:	cf3d                	beqz	a4,800047fa <.LBB36_29>
    8000477e:	6678                	ld	a4,200(a2)
    80004780:	f0d43c23          	sd	a3,-232(s0)
    80004784:	f2c43023          	sd	a2,-224(s0)
    80004788:	f2043423          	sd	zero,-216(s0)
    8000478c:	f2943823          	sd	s1,-208(s0)
    80004790:	f2b43c23          	sd	a1,-200(s0)
    80004794:	f4943023          	sd	s1,-192(s0)
    80004798:	f4e43423          	sd	a4,-184(s0)
    8000479c:	0ba75583          	lhu	a1,186(a4)
    800047a0:	95aa                	add	a1,a1,a0
    800047a2:	0585                	addi	a1,a1,1
    800047a4:	f3a5e6e3          	bltu	a1,s10,800046d0 <_ZN5alloc11collections5btree6remove259_$LT$impl$u20$alloc..collections..btree..node..Handle$LT$alloc..collections..btree..node..NodeRef$LT$alloc..collections..btree..node..marker..Mut$C$K$C$V$C$alloc..collections..btree..node..marker..Leaf$GT$$C$alloc..collections..btree..node..marker..KV$GT$$GT$14remove_leaf_kv17h0a811426753c7a2cE+0x1b8>
    800047a8:	40ad85b3          	sub	a1,s11,a0
    800047ac:	f1840513          	addi	a0,s0,-232
    800047b0:	fffff097          	auipc	ra,0xfffff
    800047b4:	0f4080e7          	jalr	244(ra) # 800038a4 <_ZN5alloc11collections5btree4node29BalancingContext$LT$K$C$V$GT$16bulk_steal_right17h1a4bfa09eb223aa2E>
    800047b8:	4581                	li	a1,0
    800047ba:	f4001fe3          	bnez	zero,80004718 <_ZN5alloc11collections5btree6remove259_$LT$impl$u20$alloc..collections..btree..node..Handle$LT$alloc..collections..btree..node..NodeRef$LT$alloc..collections..btree..node..marker..Mut$C$K$C$V$C$alloc..collections..btree..node..marker..Leaf$GT$$C$alloc..collections..btree..node..marker..KV$GT$$GT$14remove_leaf_kv17h0a811426753c7a2cE+0x200>
    800047be:	a029                	j	800047c8 <_ZN5alloc11collections5btree6remove259_$LT$impl$u20$alloc..collections..btree..node..Handle$LT$alloc..collections..btree..node..NodeRef$LT$alloc..collections..btree..node..marker..Mut$C$K$C$V$C$alloc..collections..btree..node..marker..Leaf$GT$$C$alloc..collections..btree..node..marker..KV$GT$$GT$14remove_leaf_kv17h0a811426753c7a2cE+0x2b0>
    800047c0:	e501                	bnez	a0,800047c8 <_ZN5alloc11collections5btree6remove259_$LT$impl$u20$alloc..collections..btree..node..Handle$LT$alloc..collections..btree..node..NodeRef$LT$alloc..collections..btree..node..marker..Mut$C$K$C$V$C$alloc..collections..btree..node..marker..Leaf$GT$$C$alloc..collections..btree..node..marker..KV$GT$$GT$14remove_leaf_kv17h0a811426753c7a2cE+0x2b0>
    800047c2:	4505                	li	a0,1
    800047c4:	00a90023          	sb	a0,0(s2)
    800047c8:	0159b023          	sd	s5,0(s3)
    800047cc:	0169b423          	sd	s6,8(s3)
    800047d0:	0189b823          	sd	s8,16(s3)
    800047d4:	0179bc23          	sd	s7,24(s3)
    800047d8:	0349b023          	sd	s4,32(s3)
    800047dc:	70ee                	ld	ra,248(sp)
    800047de:	744e                	ld	s0,240(sp)
    800047e0:	74ae                	ld	s1,232(sp)
    800047e2:	790e                	ld	s2,224(sp)
    800047e4:	69ee                	ld	s3,216(sp)
    800047e6:	6a4e                	ld	s4,208(sp)
    800047e8:	6aae                	ld	s5,200(sp)
    800047ea:	6b0e                	ld	s6,192(sp)
    800047ec:	7bea                	ld	s7,184(sp)
    800047ee:	7c4a                	ld	s8,176(sp)
    800047f0:	7caa                	ld	s9,168(sp)
    800047f2:	7d0a                	ld	s10,160(sp)
    800047f4:	6dea                	ld	s11,152(sp)
    800047f6:	6111                	addi	sp,sp,256
    800047f8:	8082                	ret

00000000800047fa <.LBB36_29>:
    800047fa:	00023517          	auipc	a0,0x23
    800047fe:	99e50513          	addi	a0,a0,-1634 # 80027198 <.Lanon.1896bb8148728528824850fc7e0824e2.10>
    80004802:	f4a43823          	sd	a0,-176(s0)
    80004806:	4505                	li	a0,1
    80004808:	f4a43c23          	sd	a0,-168(s0)
    8000480c:	f6043023          	sd	zero,-160(s0)

0000000080004810 <.LBB36_30>:
    80004810:	00022597          	auipc	a1,0x22
    80004814:	7f058593          	addi	a1,a1,2032 # 80027000 <etext>
    80004818:	f6b43823          	sd	a1,-144(s0)
    8000481c:	f6043c23          	sd	zero,-136(s0)
    80004820:	f5040593          	addi	a1,s0,-176
    80004824:	f8b43423          	sd	a1,-120(s0)

0000000080004828 <.LBB36_31>:
    80004828:	00020597          	auipc	a1,0x20
    8000482c:	c8258593          	addi	a1,a1,-894 # 800244aa <_ZN59_$LT$core..fmt..Arguments$u20$as$u20$core..fmt..Display$GT$3fmt17h4d3bee89ff077165E>
    80004830:	f8b43823          	sd	a1,-112(s0)

0000000080004834 <.LBB36_32>:
    80004834:	00023597          	auipc	a1,0x23
    80004838:	93c58593          	addi	a1,a1,-1732 # 80027170 <.Lanon.1896bb8148728528824850fc7e0824e2.8>
    8000483c:	f0b43c23          	sd	a1,-232(s0)
    80004840:	f2a43023          	sd	a0,-224(s0)
    80004844:	f2043423          	sd	zero,-216(s0)
    80004848:	f8840593          	addi	a1,s0,-120
    8000484c:	f2b43c23          	sd	a1,-200(s0)
    80004850:	f4a43023          	sd	a0,-192(s0)

0000000080004854 <.LBB36_33>:
    80004854:	00023597          	auipc	a1,0x23
    80004858:	95458593          	addi	a1,a1,-1708 # 800271a8 <.Lanon.1896bb8148728528824850fc7e0824e2.11>
    8000485c:	f1840513          	addi	a0,s0,-232
    80004860:	0001f097          	auipc	ra,0x1f
    80004864:	27a080e7          	jalr	634(ra) # 80023ada <_ZN4core9panicking9panic_fmt17h19eb6297ffd5ff01E>
	...

000000008000486a <.LBB36_34>:
    8000486a:	00023517          	auipc	a0,0x23
    8000486e:	92e50513          	addi	a0,a0,-1746 # 80027198 <.Lanon.1896bb8148728528824850fc7e0824e2.10>
    80004872:	f4a43823          	sd	a0,-176(s0)
    80004876:	4505                	li	a0,1
    80004878:	f4a43c23          	sd	a0,-168(s0)
    8000487c:	f6043023          	sd	zero,-160(s0)

0000000080004880 <.LBB36_35>:
    80004880:	00022597          	auipc	a1,0x22
    80004884:	78058593          	addi	a1,a1,1920 # 80027000 <etext>
    80004888:	f6b43823          	sd	a1,-144(s0)
    8000488c:	f6043c23          	sd	zero,-136(s0)
    80004890:	f5040593          	addi	a1,s0,-176
    80004894:	f0b43023          	sd	a1,-256(s0)

0000000080004898 <.LBB36_36>:
    80004898:	00020597          	auipc	a1,0x20
    8000489c:	c1258593          	addi	a1,a1,-1006 # 800244aa <_ZN59_$LT$core..fmt..Arguments$u20$as$u20$core..fmt..Display$GT$3fmt17h4d3bee89ff077165E>
    800048a0:	f0b43423          	sd	a1,-248(s0)

00000000800048a4 <.LBB36_37>:
    800048a4:	00023597          	auipc	a1,0x23
    800048a8:	8cc58593          	addi	a1,a1,-1844 # 80027170 <.Lanon.1896bb8148728528824850fc7e0824e2.8>
    800048ac:	f0b43c23          	sd	a1,-232(s0)
    800048b0:	f2a43023          	sd	a0,-224(s0)
    800048b4:	f2043423          	sd	zero,-216(s0)
    800048b8:	f0040593          	addi	a1,s0,-256
    800048bc:	bf41                	j	8000484c <.LBB36_32+0x18>

00000000800048be <_ZN5alloc11collections5btree6remove259_$LT$impl$u20$alloc..collections..btree..node..Handle$LT$alloc..collections..btree..node..NodeRef$LT$alloc..collections..btree..node..marker..Mut$C$K$C$V$C$alloc..collections..btree..node..marker..Leaf$GT$$C$alloc..collections..btree..node..marker..KV$GT$$GT$14remove_leaf_kv17h1a17de6da3986ab6E>:
    800048be:	7111                	addi	sp,sp,-256
    800048c0:	fd86                	sd	ra,248(sp)
    800048c2:	f9a2                	sd	s0,240(sp)
    800048c4:	f5a6                	sd	s1,232(sp)
    800048c6:	f1ca                	sd	s2,224(sp)
    800048c8:	edce                	sd	s3,216(sp)
    800048ca:	e9d2                	sd	s4,208(sp)
    800048cc:	e5d6                	sd	s5,200(sp)
    800048ce:	e1da                	sd	s6,192(sp)
    800048d0:	fd5e                	sd	s7,184(sp)
    800048d2:	f962                	sd	s8,176(sp)
    800048d4:	f566                	sd	s9,168(sp)
    800048d6:	f16a                	sd	s10,160(sp)
    800048d8:	ed6e                	sd	s11,152(sp)
    800048da:	0200                	addi	s0,sp,256
    800048dc:	0085bb83          	ld	s7,8(a1)
    800048e0:	0105ba03          	ld	s4,16(a1)
    800048e4:	8932                	mv	s2,a2
    800048e6:	89aa                	mv	s3,a0
    800048e8:	0005bc03          	ld	s8,0(a1)
    800048ec:	0babdd03          	lhu	s10,186(s7)
    800048f0:	003a1b13          	slli	s6,s4,0x3
    800048f4:	008b8593          	addi	a1,s7,8
    800048f8:	01658533          	add	a0,a1,s6
    800048fc:	00053a83          	ld	s5,0(a0)
    80004900:	001a0c93          	addi	s9,s4,1
    80004904:	003c9d93          	slli	s11,s9,0x3
    80004908:	95ee                	add	a1,a1,s11
    8000490a:	fffa4613          	not	a2,s4
    8000490e:	966a                	add	a2,a2,s10
    80004910:	00361493          	slli	s1,a2,0x3
    80004914:	8626                	mv	a2,s1
    80004916:	00022097          	auipc	ra,0x22
    8000491a:	302080e7          	jalr	770(ra) # 80026c18 <memmove>
    8000491e:	060b8593          	addi	a1,s7,96
    80004922:	01658533          	add	a0,a1,s6
    80004926:	00053b03          	ld	s6,0(a0)
    8000492a:	95ee                	add	a1,a1,s11
    8000492c:	8626                	mv	a2,s1
    8000492e:	00022097          	auipc	ra,0x22
    80004932:	2ea080e7          	jalr	746(ra) # 80026c18 <memmove>
    80004936:	fffd0513          	addi	a0,s10,-1
    8000493a:	03051593          	slli	a1,a0,0x30
    8000493e:	0305d613          	srli	a2,a1,0x30
    80004942:	4595                	li	a1,5
    80004944:	0aab9d23          	sh	a0,186(s7)
    80004948:	22b67363          	bgeu	a2,a1,80004b6e <_ZN5alloc11collections5btree6remove259_$LT$impl$u20$alloc..collections..btree..node..Handle$LT$alloc..collections..btree..node..NodeRef$LT$alloc..collections..btree..node..marker..Mut$C$K$C$V$C$alloc..collections..btree..node..marker..Leaf$GT$$C$alloc..collections..btree..node..marker..KV$GT$$GT$14remove_leaf_kv17h1a17de6da3986ab6E+0x2b0>
    8000494c:	000bb503          	ld	a0,0(s7)
    80004950:	cd6d                	beqz	a0,80004a4a <_ZN5alloc11collections5btree6remove259_$LT$impl$u20$alloc..collections..btree..node..Handle$LT$alloc..collections..btree..node..NodeRef$LT$alloc..collections..btree..node..marker..Mut$C$K$C$V$C$alloc..collections..btree..node..marker..Leaf$GT$$C$alloc..collections..btree..node..marker..KV$GT$$GT$14remove_leaf_kv17h1a17de6da3986ab6E+0x18c>
    80004952:	0b8bd683          	lhu	a3,184(s7)
    80004956:	001c0593          	addi	a1,s8,1
    8000495a:	c2b1                	beqz	a3,8000499e <_ZN5alloc11collections5btree6remove259_$LT$impl$u20$alloc..collections..btree..node..Handle$LT$alloc..collections..btree..node..NodeRef$LT$alloc..collections..btree..node..marker..Mut$C$K$C$V$C$alloc..collections..btree..node..marker..Leaf$GT$$C$alloc..collections..btree..node..marker..KV$GT$$GT$14remove_leaf_kv17h1a17de6da3986ab6E+0xe0>
    8000495c:	fff68713          	addi	a4,a3,-1
    80004960:	00371693          	slli	a3,a4,0x3
    80004964:	96aa                	add	a3,a3,a0
    80004966:	62f4                	ld	a3,192(a3)
    80004968:	0ba6d783          	lhu	a5,186(a3)
    8000496c:	963e                	add	a2,a2,a5
    8000496e:	0605                	addi	a2,a2,1
    80004970:	47b1                	li	a5,12
    80004972:	06f67b63          	bgeu	a2,a5,800049e8 <_ZN5alloc11collections5btree6remove259_$LT$impl$u20$alloc..collections..btree..node..Handle$LT$alloc..collections..btree..node..NodeRef$LT$alloc..collections..btree..node..marker..Mut$C$K$C$V$C$alloc..collections..btree..node..marker..Leaf$GT$$C$alloc..collections..btree..node..marker..KV$GT$$GT$14remove_leaf_kv17h1a17de6da3986ab6E+0x12a>
    80004976:	f4b43823          	sd	a1,-176(s0)
    8000497a:	f4a43c23          	sd	a0,-168(s0)
    8000497e:	f6e43023          	sd	a4,-160(s0)
    80004982:	f7843423          	sd	s8,-152(s0)
    80004986:	f6d43823          	sd	a3,-144(s0)
    8000498a:	f7843c23          	sd	s8,-136(s0)
    8000498e:	f9743023          	sd	s7,-128(s0)
    80004992:	f0040513          	addi	a0,s0,-256
    80004996:	f5040593          	addi	a1,s0,-176
    8000499a:	4605                	li	a2,1
    8000499c:	a081                	j	800049dc <_ZN5alloc11collections5btree6remove259_$LT$impl$u20$alloc..collections..btree..node..Handle$LT$alloc..collections..btree..node..NodeRef$LT$alloc..collections..btree..node..marker..Mut$C$K$C$V$C$alloc..collections..btree..node..marker..Leaf$GT$$C$alloc..collections..btree..node..marker..KV$GT$$GT$14remove_leaf_kv17h1a17de6da3986ab6E+0x11e>
    8000499e:	0ba55683          	lhu	a3,186(a0)
    800049a2:	26068763          	beqz	a3,80004c10 <.LBB37_34>
    800049a6:	6574                	ld	a3,200(a0)
    800049a8:	0ba6d703          	lhu	a4,186(a3)
    800049ac:	963a                	add	a2,a2,a4
    800049ae:	0605                	addi	a2,a2,1
    800049b0:	4731                	li	a4,12
    800049b2:	06e67763          	bgeu	a2,a4,80004a20 <_ZN5alloc11collections5btree6remove259_$LT$impl$u20$alloc..collections..btree..node..Handle$LT$alloc..collections..btree..node..NodeRef$LT$alloc..collections..btree..node..marker..Mut$C$K$C$V$C$alloc..collections..btree..node..marker..Leaf$GT$$C$alloc..collections..btree..node..marker..KV$GT$$GT$14remove_leaf_kv17h1a17de6da3986ab6E+0x162>
    800049b6:	f4b43823          	sd	a1,-176(s0)
    800049ba:	f4a43c23          	sd	a0,-168(s0)
    800049be:	f6043023          	sd	zero,-160(s0)
    800049c2:	f7843423          	sd	s8,-152(s0)
    800049c6:	f7743823          	sd	s7,-144(s0)
    800049ca:	f7843c23          	sd	s8,-136(s0)
    800049ce:	f8d43023          	sd	a3,-128(s0)
    800049d2:	f0040513          	addi	a0,s0,-256
    800049d6:	f5040593          	addi	a1,s0,-176
    800049da:	4601                	li	a2,0
    800049dc:	86d2                	mv	a3,s4
    800049de:	fffff097          	auipc	ra,0xfffff
    800049e2:	67a080e7          	jalr	1658(ra) # 80004058 <_ZN5alloc11collections5btree4node29BalancingContext$LT$K$C$V$GT$25merge_tracking_child_edge17h0ea9784e4a01dd06E>
    800049e6:	a885                	j	80004a56 <_ZN5alloc11collections5btree6remove259_$LT$impl$u20$alloc..collections..btree..node..Handle$LT$alloc..collections..btree..node..NodeRef$LT$alloc..collections..btree..node..marker..Mut$C$K$C$V$C$alloc..collections..btree..node..marker..Leaf$GT$$C$alloc..collections..btree..node..marker..KV$GT$$GT$14remove_leaf_kv17h1a17de6da3986ab6E+0x198>
    800049e8:	f4b43823          	sd	a1,-176(s0)
    800049ec:	f4a43c23          	sd	a0,-168(s0)
    800049f0:	f6e43023          	sd	a4,-160(s0)
    800049f4:	f7843423          	sd	s8,-152(s0)
    800049f8:	f6d43823          	sd	a3,-144(s0)
    800049fc:	f7843c23          	sd	s8,-136(s0)
    80004a00:	f9743023          	sd	s7,-128(s0)
    80004a04:	f5040513          	addi	a0,s0,-176
    80004a08:	4585                	li	a1,1
    80004a0a:	fffff097          	auipc	ra,0xfffff
    80004a0e:	cbc080e7          	jalr	-836(ra) # 800036c6 <_ZN5alloc11collections5btree4node29BalancingContext$LT$K$C$V$GT$15bulk_steal_left17hd8030156f4bb3ccfE>
    80004a12:	f1843023          	sd	s8,-256(s0)
    80004a16:	f1743423          	sd	s7,-248(s0)
    80004a1a:	f1943823          	sd	s9,-240(s0)
    80004a1e:	a825                	j	80004a56 <_ZN5alloc11collections5btree6remove259_$LT$impl$u20$alloc..collections..btree..node..Handle$LT$alloc..collections..btree..node..NodeRef$LT$alloc..collections..btree..node..marker..Mut$C$K$C$V$C$alloc..collections..btree..node..marker..Leaf$GT$$C$alloc..collections..btree..node..marker..KV$GT$$GT$14remove_leaf_kv17h1a17de6da3986ab6E+0x198>
    80004a20:	f4b43823          	sd	a1,-176(s0)
    80004a24:	f4a43c23          	sd	a0,-168(s0)
    80004a28:	f6043023          	sd	zero,-160(s0)
    80004a2c:	f7843423          	sd	s8,-152(s0)
    80004a30:	f7743823          	sd	s7,-144(s0)
    80004a34:	f7843c23          	sd	s8,-136(s0)
    80004a38:	f8d43023          	sd	a3,-128(s0)
    80004a3c:	f5040513          	addi	a0,s0,-176
    80004a40:	4585                	li	a1,1
    80004a42:	fffff097          	auipc	ra,0xfffff
    80004a46:	04c080e7          	jalr	76(ra) # 80003a8e <_ZN5alloc11collections5btree4node29BalancingContext$LT$K$C$V$GT$16bulk_steal_right17hfc6848d899ee98f0E>
    80004a4a:	f1843023          	sd	s8,-256(s0)
    80004a4e:	f1743423          	sd	s7,-248(s0)
    80004a52:	f1443823          	sd	s4,-240(s0)
    80004a56:	f0843b83          	ld	s7,-248(s0)
    80004a5a:	f0043c03          	ld	s8,-256(s0)
    80004a5e:	000bb583          	ld	a1,0(s7)
    80004a62:	f1043a03          	ld	s4,-240(s0)
    80004a66:	10058463          	beqz	a1,80004b6e <_ZN5alloc11collections5btree6remove259_$LT$impl$u20$alloc..collections..btree..node..Handle$LT$alloc..collections..btree..node..NodeRef$LT$alloc..collections..btree..node..marker..Mut$C$K$C$V$C$alloc..collections..btree..node..marker..Leaf$GT$$C$alloc..collections..btree..node..marker..KV$GT$$GT$14remove_leaf_kv17h1a17de6da3986ab6E+0x2b0>
    80004a6a:	001c0493          	addi	s1,s8,1
    80004a6e:	4c91                	li	s9,4
    80004a70:	4d31                	li	s10,12
    80004a72:	4d95                	li	s11,5
    80004a74:	a0a9                	j	80004abe <_ZN5alloc11collections5btree6remove259_$LT$impl$u20$alloc..collections..btree..node..Handle$LT$alloc..collections..btree..node..NodeRef$LT$alloc..collections..btree..node..marker..Mut$C$K$C$V$C$alloc..collections..btree..node..marker..Leaf$GT$$C$alloc..collections..btree..node..marker..KV$GT$$GT$14remove_leaf_kv17h1a17de6da3986ab6E+0x200>
    80004a76:	f4843503          	ld	a0,-184(s0)
    80004a7a:	f4043583          	ld	a1,-192(s0)
    80004a7e:	f3843603          	ld	a2,-200(s0)
    80004a82:	f8a43023          	sd	a0,-128(s0)
    80004a86:	f6b43c23          	sd	a1,-136(s0)
    80004a8a:	f6c43823          	sd	a2,-144(s0)
    80004a8e:	f3043503          	ld	a0,-208(s0)
    80004a92:	f2843583          	ld	a1,-216(s0)
    80004a96:	f2043603          	ld	a2,-224(s0)
    80004a9a:	f1843683          	ld	a3,-232(s0)
    80004a9e:	f6a43423          	sd	a0,-152(s0)
    80004aa2:	f6b43023          	sd	a1,-160(s0)
    80004aa6:	f4c43c23          	sd	a2,-168(s0)
    80004aaa:	f4d43823          	sd	a3,-176(s0)
    80004aae:	f5040513          	addi	a0,s0,-176
    80004ab2:	fffff097          	auipc	ra,0xfffff
    80004ab6:	1c6080e7          	jalr	454(ra) # 80003c78 <_ZN5alloc11collections5btree4node29BalancingContext$LT$K$C$V$GT$21merge_tracking_parent17h0ddea5589ee85823E>
    80004aba:	84aa                	mv	s1,a0
    80004abc:	c9cd                	beqz	a1,80004b6e <_ZN5alloc11collections5btree6remove259_$LT$impl$u20$alloc..collections..btree..node..Handle$LT$alloc..collections..btree..node..NodeRef$LT$alloc..collections..btree..node..marker..Mut$C$K$C$V$C$alloc..collections..btree..node..marker..Leaf$GT$$C$alloc..collections..btree..node..marker..KV$GT$$GT$14remove_leaf_kv17h1a17de6da3986ab6E+0x2b0>
    80004abe:	0ba5d503          	lhu	a0,186(a1)
    80004ac2:	0aace663          	bltu	s9,a0,80004b6e <_ZN5alloc11collections5btree6remove259_$LT$impl$u20$alloc..collections..btree..node..Handle$LT$alloc..collections..btree..node..NodeRef$LT$alloc..collections..btree..node..marker..Mut$C$K$C$V$C$alloc..collections..btree..node..marker..Leaf$GT$$C$alloc..collections..btree..node..marker..KV$GT$$GT$14remove_leaf_kv17h1a17de6da3986ab6E+0x2b0>
    80004ac6:	6190                	ld	a2,0(a1)
    80004ac8:	ce59                	beqz	a2,80004b66 <_ZN5alloc11collections5btree6remove259_$LT$impl$u20$alloc..collections..btree..node..Handle$LT$alloc..collections..btree..node..NodeRef$LT$alloc..collections..btree..node..marker..Mut$C$K$C$V$C$alloc..collections..btree..node..marker..Leaf$GT$$C$alloc..collections..btree..node..marker..KV$GT$$GT$14remove_leaf_kv17h1a17de6da3986ab6E+0x2a8>
    80004aca:	0b85d703          	lhu	a4,184(a1)
    80004ace:	00148693          	addi	a3,s1,1
    80004ad2:	c731                	beqz	a4,80004b1e <_ZN5alloc11collections5btree6remove259_$LT$impl$u20$alloc..collections..btree..node..Handle$LT$alloc..collections..btree..node..NodeRef$LT$alloc..collections..btree..node..marker..Mut$C$K$C$V$C$alloc..collections..btree..node..marker..Leaf$GT$$C$alloc..collections..btree..node..marker..KV$GT$$GT$14remove_leaf_kv17h1a17de6da3986ab6E+0x260>
    80004ad4:	177d                	addi	a4,a4,-1
    80004ad6:	00371793          	slli	a5,a4,0x3
    80004ada:	97b2                	add	a5,a5,a2
    80004adc:	63fc                	ld	a5,192(a5)
    80004ade:	f0d43c23          	sd	a3,-232(s0)
    80004ae2:	f2c43023          	sd	a2,-224(s0)
    80004ae6:	f2e43423          	sd	a4,-216(s0)
    80004aea:	f2943823          	sd	s1,-208(s0)
    80004aee:	f2f43c23          	sd	a5,-200(s0)
    80004af2:	f4943023          	sd	s1,-192(s0)
    80004af6:	f4b43423          	sd	a1,-184(s0)
    80004afa:	0ba7d583          	lhu	a1,186(a5)
    80004afe:	95aa                	add	a1,a1,a0
    80004b00:	0585                	addi	a1,a1,1
    80004b02:	f7a5eae3          	bltu	a1,s10,80004a76 <_ZN5alloc11collections5btree6remove259_$LT$impl$u20$alloc..collections..btree..node..Handle$LT$alloc..collections..btree..node..NodeRef$LT$alloc..collections..btree..node..marker..Mut$C$K$C$V$C$alloc..collections..btree..node..marker..Leaf$GT$$C$alloc..collections..btree..node..marker..KV$GT$$GT$14remove_leaf_kv17h1a17de6da3986ab6E+0x1b8>
    80004b06:	40ad85b3          	sub	a1,s11,a0
    80004b0a:	f1840513          	addi	a0,s0,-232
    80004b0e:	fffff097          	auipc	ra,0xfffff
    80004b12:	bb8080e7          	jalr	-1096(ra) # 800036c6 <_ZN5alloc11collections5btree4node29BalancingContext$LT$K$C$V$GT$15bulk_steal_left17hd8030156f4bb3ccfE>
    80004b16:	4581                	li	a1,0
    80004b18:	fa0013e3          	bnez	zero,80004abe <_ZN5alloc11collections5btree6remove259_$LT$impl$u20$alloc..collections..btree..node..Handle$LT$alloc..collections..btree..node..NodeRef$LT$alloc..collections..btree..node..marker..Mut$C$K$C$V$C$alloc..collections..btree..node..marker..Leaf$GT$$C$alloc..collections..btree..node..marker..KV$GT$$GT$14remove_leaf_kv17h1a17de6da3986ab6E+0x200>
    80004b1c:	a889                	j	80004b6e <_ZN5alloc11collections5btree6remove259_$LT$impl$u20$alloc..collections..btree..node..Handle$LT$alloc..collections..btree..node..NodeRef$LT$alloc..collections..btree..node..marker..Mut$C$K$C$V$C$alloc..collections..btree..node..marker..Leaf$GT$$C$alloc..collections..btree..node..marker..KV$GT$$GT$14remove_leaf_kv17h1a17de6da3986ab6E+0x2b0>
    80004b1e:	0ba65703          	lhu	a4,186(a2)
    80004b22:	cf3d                	beqz	a4,80004ba0 <.LBB37_29>
    80004b24:	6678                	ld	a4,200(a2)
    80004b26:	f0d43c23          	sd	a3,-232(s0)
    80004b2a:	f2c43023          	sd	a2,-224(s0)
    80004b2e:	f2043423          	sd	zero,-216(s0)
    80004b32:	f2943823          	sd	s1,-208(s0)
    80004b36:	f2b43c23          	sd	a1,-200(s0)
    80004b3a:	f4943023          	sd	s1,-192(s0)
    80004b3e:	f4e43423          	sd	a4,-184(s0)
    80004b42:	0ba75583          	lhu	a1,186(a4)
    80004b46:	95aa                	add	a1,a1,a0
    80004b48:	0585                	addi	a1,a1,1
    80004b4a:	f3a5e6e3          	bltu	a1,s10,80004a76 <_ZN5alloc11collections5btree6remove259_$LT$impl$u20$alloc..collections..btree..node..Handle$LT$alloc..collections..btree..node..NodeRef$LT$alloc..collections..btree..node..marker..Mut$C$K$C$V$C$alloc..collections..btree..node..marker..Leaf$GT$$C$alloc..collections..btree..node..marker..KV$GT$$GT$14remove_leaf_kv17h1a17de6da3986ab6E+0x1b8>
    80004b4e:	40ad85b3          	sub	a1,s11,a0
    80004b52:	f1840513          	addi	a0,s0,-232
    80004b56:	fffff097          	auipc	ra,0xfffff
    80004b5a:	f38080e7          	jalr	-200(ra) # 80003a8e <_ZN5alloc11collections5btree4node29BalancingContext$LT$K$C$V$GT$16bulk_steal_right17hfc6848d899ee98f0E>
    80004b5e:	4581                	li	a1,0
    80004b60:	f4001fe3          	bnez	zero,80004abe <_ZN5alloc11collections5btree6remove259_$LT$impl$u20$alloc..collections..btree..node..Handle$LT$alloc..collections..btree..node..NodeRef$LT$alloc..collections..btree..node..marker..Mut$C$K$C$V$C$alloc..collections..btree..node..marker..Leaf$GT$$C$alloc..collections..btree..node..marker..KV$GT$$GT$14remove_leaf_kv17h1a17de6da3986ab6E+0x200>
    80004b64:	a029                	j	80004b6e <_ZN5alloc11collections5btree6remove259_$LT$impl$u20$alloc..collections..btree..node..Handle$LT$alloc..collections..btree..node..NodeRef$LT$alloc..collections..btree..node..marker..Mut$C$K$C$V$C$alloc..collections..btree..node..marker..Leaf$GT$$C$alloc..collections..btree..node..marker..KV$GT$$GT$14remove_leaf_kv17h1a17de6da3986ab6E+0x2b0>
    80004b66:	e501                	bnez	a0,80004b6e <_ZN5alloc11collections5btree6remove259_$LT$impl$u20$alloc..collections..btree..node..Handle$LT$alloc..collections..btree..node..NodeRef$LT$alloc..collections..btree..node..marker..Mut$C$K$C$V$C$alloc..collections..btree..node..marker..Leaf$GT$$C$alloc..collections..btree..node..marker..KV$GT$$GT$14remove_leaf_kv17h1a17de6da3986ab6E+0x2b0>
    80004b68:	4505                	li	a0,1
    80004b6a:	00a90023          	sb	a0,0(s2)
    80004b6e:	0159b023          	sd	s5,0(s3)
    80004b72:	0169b423          	sd	s6,8(s3)
    80004b76:	0189b823          	sd	s8,16(s3)
    80004b7a:	0179bc23          	sd	s7,24(s3)
    80004b7e:	0349b023          	sd	s4,32(s3)
    80004b82:	70ee                	ld	ra,248(sp)
    80004b84:	744e                	ld	s0,240(sp)
    80004b86:	74ae                	ld	s1,232(sp)
    80004b88:	790e                	ld	s2,224(sp)
    80004b8a:	69ee                	ld	s3,216(sp)
    80004b8c:	6a4e                	ld	s4,208(sp)
    80004b8e:	6aae                	ld	s5,200(sp)
    80004b90:	6b0e                	ld	s6,192(sp)
    80004b92:	7bea                	ld	s7,184(sp)
    80004b94:	7c4a                	ld	s8,176(sp)
    80004b96:	7caa                	ld	s9,168(sp)
    80004b98:	7d0a                	ld	s10,160(sp)
    80004b9a:	6dea                	ld	s11,152(sp)
    80004b9c:	6111                	addi	sp,sp,256
    80004b9e:	8082                	ret

0000000080004ba0 <.LBB37_29>:
    80004ba0:	00022517          	auipc	a0,0x22
    80004ba4:	5f850513          	addi	a0,a0,1528 # 80027198 <.Lanon.1896bb8148728528824850fc7e0824e2.10>
    80004ba8:	f4a43823          	sd	a0,-176(s0)
    80004bac:	4505                	li	a0,1
    80004bae:	f4a43c23          	sd	a0,-168(s0)
    80004bb2:	f6043023          	sd	zero,-160(s0)

0000000080004bb6 <.LBB37_30>:
    80004bb6:	00022597          	auipc	a1,0x22
    80004bba:	44a58593          	addi	a1,a1,1098 # 80027000 <etext>
    80004bbe:	f6b43823          	sd	a1,-144(s0)
    80004bc2:	f6043c23          	sd	zero,-136(s0)
    80004bc6:	f5040593          	addi	a1,s0,-176
    80004bca:	f8b43423          	sd	a1,-120(s0)

0000000080004bce <.LBB37_31>:
    80004bce:	00020597          	auipc	a1,0x20
    80004bd2:	8dc58593          	addi	a1,a1,-1828 # 800244aa <_ZN59_$LT$core..fmt..Arguments$u20$as$u20$core..fmt..Display$GT$3fmt17h4d3bee89ff077165E>
    80004bd6:	f8b43823          	sd	a1,-112(s0)

0000000080004bda <.LBB37_32>:
    80004bda:	00022597          	auipc	a1,0x22
    80004bde:	59658593          	addi	a1,a1,1430 # 80027170 <.Lanon.1896bb8148728528824850fc7e0824e2.8>
    80004be2:	f0b43c23          	sd	a1,-232(s0)
    80004be6:	f2a43023          	sd	a0,-224(s0)
    80004bea:	f2043423          	sd	zero,-216(s0)
    80004bee:	f8840593          	addi	a1,s0,-120
    80004bf2:	f2b43c23          	sd	a1,-200(s0)
    80004bf6:	f4a43023          	sd	a0,-192(s0)

0000000080004bfa <.LBB37_33>:
    80004bfa:	00022597          	auipc	a1,0x22
    80004bfe:	5ae58593          	addi	a1,a1,1454 # 800271a8 <.Lanon.1896bb8148728528824850fc7e0824e2.11>
    80004c02:	f1840513          	addi	a0,s0,-232
    80004c06:	0001f097          	auipc	ra,0x1f
    80004c0a:	ed4080e7          	jalr	-300(ra) # 80023ada <_ZN4core9panicking9panic_fmt17h19eb6297ffd5ff01E>
	...

0000000080004c10 <.LBB37_34>:
    80004c10:	00022517          	auipc	a0,0x22
    80004c14:	58850513          	addi	a0,a0,1416 # 80027198 <.Lanon.1896bb8148728528824850fc7e0824e2.10>
    80004c18:	f4a43823          	sd	a0,-176(s0)
    80004c1c:	4505                	li	a0,1
    80004c1e:	f4a43c23          	sd	a0,-168(s0)
    80004c22:	f6043023          	sd	zero,-160(s0)

0000000080004c26 <.LBB37_35>:
    80004c26:	00022597          	auipc	a1,0x22
    80004c2a:	3da58593          	addi	a1,a1,986 # 80027000 <etext>
    80004c2e:	f6b43823          	sd	a1,-144(s0)
    80004c32:	f6043c23          	sd	zero,-136(s0)
    80004c36:	f5040593          	addi	a1,s0,-176
    80004c3a:	f0b43023          	sd	a1,-256(s0)

0000000080004c3e <.LBB37_36>:
    80004c3e:	00020597          	auipc	a1,0x20
    80004c42:	86c58593          	addi	a1,a1,-1940 # 800244aa <_ZN59_$LT$core..fmt..Arguments$u20$as$u20$core..fmt..Display$GT$3fmt17h4d3bee89ff077165E>
    80004c46:	f0b43423          	sd	a1,-248(s0)

0000000080004c4a <.LBB37_37>:
    80004c4a:	00022597          	auipc	a1,0x22
    80004c4e:	52658593          	addi	a1,a1,1318 # 80027170 <.Lanon.1896bb8148728528824850fc7e0824e2.8>
    80004c52:	f0b43c23          	sd	a1,-232(s0)
    80004c56:	f2a43023          	sd	a0,-224(s0)
    80004c5a:	f2043423          	sd	zero,-216(s0)
    80004c5e:	f0040593          	addi	a1,s0,-256
    80004c62:	bf41                	j	80004bf2 <.LBB37_32+0x18>

0000000080004c64 <_ZN5alloc11collections5btree6remove269_$LT$impl$u20$alloc..collections..btree..node..Handle$LT$alloc..collections..btree..node..NodeRef$LT$alloc..collections..btree..node..marker..Mut$C$K$C$V$C$alloc..collections..btree..node..marker..LeafOrInternal$GT$$C$alloc..collections..btree..node..marker..KV$GT$$GT$18remove_kv_tracking17h6a8524fa6587ba62E>:
    80004c64:	711d                	addi	sp,sp,-96
    80004c66:	ec86                	sd	ra,88(sp)
    80004c68:	e8a2                	sd	s0,80(sp)
    80004c6a:	e4a6                	sd	s1,72(sp)
    80004c6c:	1080                	addi	s0,sp,96
    80004c6e:	6198                	ld	a4,0(a1)
    80004c70:	6594                	ld	a3,8(a1)
    80004c72:	698c                	ld	a1,16(a1)
    80004c74:	84aa                	mv	s1,a0
    80004c76:	cb3d                	beqz	a4,80004cec <_ZN5alloc11collections5btree6remove269_$LT$impl$u20$alloc..collections..btree..node..Handle$LT$alloc..collections..btree..node..NodeRef$LT$alloc..collections..btree..node..marker..Mut$C$K$C$V$C$alloc..collections..btree..node..marker..LeafOrInternal$GT$$C$alloc..collections..btree..node..marker..KV$GT$$GT$18remove_kv_tracking17h6a8524fa6587ba62E+0x88>
    80004c78:	00359513          	slli	a0,a1,0x3
    80004c7c:	9536                	add	a0,a0,a3
    80004c7e:	6168                	ld	a0,192(a0)
    80004c80:	fff70593          	addi	a1,a4,-1
    80004c84:	c981                	beqz	a1,80004c94 <_ZN5alloc11collections5btree6remove269_$LT$impl$u20$alloc..collections..btree..node..Handle$LT$alloc..collections..btree..node..NodeRef$LT$alloc..collections..btree..node..marker..Mut$C$K$C$V$C$alloc..collections..btree..node..marker..LeafOrInternal$GT$$C$alloc..collections..btree..node..marker..KV$GT$$GT$18remove_kv_tracking17h6a8524fa6587ba62E+0x30>
    80004c86:	0ba55683          	lhu	a3,186(a0)
    80004c8a:	068e                	slli	a3,a3,0x3
    80004c8c:	9536                	add	a0,a0,a3
    80004c8e:	6168                	ld	a0,192(a0)
    80004c90:	15fd                	addi	a1,a1,-1
    80004c92:	f9f5                	bnez	a1,80004c86 <_ZN5alloc11collections5btree6remove269_$LT$impl$u20$alloc..collections..btree..node..Handle$LT$alloc..collections..btree..node..NodeRef$LT$alloc..collections..btree..node..marker..Mut$C$K$C$V$C$alloc..collections..btree..node..marker..LeafOrInternal$GT$$C$alloc..collections..btree..node..marker..KV$GT$$GT$18remove_kv_tracking17h6a8524fa6587ba62E+0x22>
    80004c94:	0ba55583          	lhu	a1,186(a0)
    80004c98:	15fd                	addi	a1,a1,-1
    80004c9a:	fc043823          	sd	zero,-48(s0)
    80004c9e:	fca43c23          	sd	a0,-40(s0)
    80004ca2:	feb43023          	sd	a1,-32(s0)
    80004ca6:	fa840513          	addi	a0,s0,-88
    80004caa:	fd040593          	addi	a1,s0,-48
    80004cae:	00000097          	auipc	ra,0x0
    80004cb2:	c10080e7          	jalr	-1008(ra) # 800048be <_ZN5alloc11collections5btree6remove259_$LT$impl$u20$alloc..collections..btree..node..Handle$LT$alloc..collections..btree..node..NodeRef$LT$alloc..collections..btree..node..marker..Mut$C$K$C$V$C$alloc..collections..btree..node..marker..Leaf$GT$$C$alloc..collections..btree..node..marker..KV$GT$$GT$14remove_leaf_kv17h1a17de6da3986ab6E>
    80004cb6:	fc043703          	ld	a4,-64(s0)
    80004cba:	fa843883          	ld	a7,-88(s0)
    80004cbe:	fb043803          	ld	a6,-80(s0)
    80004cc2:	fc843603          	ld	a2,-56(s0)
    80004cc6:	0ba75503          	lhu	a0,186(a4)
    80004cca:	fb843583          	ld	a1,-72(s0)
    80004cce:	00a67463          	bgeu	a2,a0,80004cd6 <_ZN5alloc11collections5btree6remove269_$LT$impl$u20$alloc..collections..btree..node..Handle$LT$alloc..collections..btree..node..NodeRef$LT$alloc..collections..btree..node..marker..Mut$C$K$C$V$C$alloc..collections..btree..node..marker..LeafOrInternal$GT$$C$alloc..collections..btree..node..marker..KV$GT$$GT$18remove_kv_tracking17h6a8524fa6587ba62E+0x72>
    80004cd2:	853a                	mv	a0,a4
    80004cd4:	a81d                	j	80004d0a <_ZN5alloc11collections5btree6remove269_$LT$impl$u20$alloc..collections..btree..node..Handle$LT$alloc..collections..btree..node..NodeRef$LT$alloc..collections..btree..node..marker..Mut$C$K$C$V$C$alloc..collections..btree..node..marker..LeafOrInternal$GT$$C$alloc..collections..btree..node..marker..KV$GT$$GT$18remove_kv_tracking17h6a8524fa6587ba62E+0xa6>
    80004cd6:	6308                	ld	a0,0(a4)
    80004cd8:	c905                	beqz	a0,80004d08 <_ZN5alloc11collections5btree6remove269_$LT$impl$u20$alloc..collections..btree..node..Handle$LT$alloc..collections..btree..node..NodeRef$LT$alloc..collections..btree..node..marker..Mut$C$K$C$V$C$alloc..collections..btree..node..marker..LeafOrInternal$GT$$C$alloc..collections..btree..node..marker..KV$GT$$GT$18remove_kv_tracking17h6a8524fa6587ba62E+0xa4>
    80004cda:	0b875603          	lhu	a2,184(a4)
    80004cde:	0ba55783          	lhu	a5,186(a0)
    80004ce2:	0585                	addi	a1,a1,1
    80004ce4:	872a                	mv	a4,a0
    80004ce6:	fef678e3          	bgeu	a2,a5,80004cd6 <_ZN5alloc11collections5btree6remove269_$LT$impl$u20$alloc..collections..btree..node..Handle$LT$alloc..collections..btree..node..NodeRef$LT$alloc..collections..btree..node..marker..Mut$C$K$C$V$C$alloc..collections..btree..node..marker..LeafOrInternal$GT$$C$alloc..collections..btree..node..marker..KV$GT$$GT$18remove_kv_tracking17h6a8524fa6587ba62E+0x72>
    80004cea:	a005                	j	80004d0a <_ZN5alloc11collections5btree6remove269_$LT$impl$u20$alloc..collections..btree..node..Handle$LT$alloc..collections..btree..node..NodeRef$LT$alloc..collections..btree..node..marker..Mut$C$K$C$V$C$alloc..collections..btree..node..marker..LeafOrInternal$GT$$C$alloc..collections..btree..node..marker..KV$GT$$GT$18remove_kv_tracking17h6a8524fa6587ba62E+0xa6>
    80004cec:	fa043423          	sd	zero,-88(s0)
    80004cf0:	fad43823          	sd	a3,-80(s0)
    80004cf4:	fab43c23          	sd	a1,-72(s0)
    80004cf8:	fa840593          	addi	a1,s0,-88
    80004cfc:	8526                	mv	a0,s1
    80004cfe:	00000097          	auipc	ra,0x0
    80004d02:	bc0080e7          	jalr	-1088(ra) # 800048be <_ZN5alloc11collections5btree6remove259_$LT$impl$u20$alloc..collections..btree..node..Handle$LT$alloc..collections..btree..node..NodeRef$LT$alloc..collections..btree..node..marker..Mut$C$K$C$V$C$alloc..collections..btree..node..marker..Leaf$GT$$C$alloc..collections..btree..node..marker..KV$GT$$GT$14remove_leaf_kv17h1a17de6da3986ab6E>
    80004d06:	a815                	j	80004d3a <_ZN5alloc11collections5btree6remove269_$LT$impl$u20$alloc..collections..btree..node..Handle$LT$alloc..collections..btree..node..NodeRef$LT$alloc..collections..btree..node..marker..Mut$C$K$C$V$C$alloc..collections..btree..node..marker..LeafOrInternal$GT$$C$alloc..collections..btree..node..marker..KV$GT$$GT$18remove_kv_tracking17h6a8524fa6587ba62E+0xd6>
    80004d08:	4501                	li	a0,0
    80004d0a:	00361713          	slli	a4,a2,0x3
    80004d0e:	00e506b3          	add	a3,a0,a4
    80004d12:	6698                	ld	a4,8(a3)
    80004d14:	72bc                	ld	a5,96(a3)
    80004d16:	0116b423          	sd	a7,8(a3)
    80004d1a:	0706b023          	sd	a6,96(a3)
    80004d1e:	0605                	addi	a2,a2,1
    80004d20:	c599                	beqz	a1,80004d2e <_ZN5alloc11collections5btree6remove269_$LT$impl$u20$alloc..collections..btree..node..Handle$LT$alloc..collections..btree..node..NodeRef$LT$alloc..collections..btree..node..marker..Mut$C$K$C$V$C$alloc..collections..btree..node..marker..LeafOrInternal$GT$$C$alloc..collections..btree..node..marker..KV$GT$$GT$18remove_kv_tracking17h6a8524fa6587ba62E+0xca>
    80004d22:	060e                	slli	a2,a2,0x3
    80004d24:	9532                	add	a0,a0,a2
    80004d26:	6168                	ld	a0,192(a0)
    80004d28:	15fd                	addi	a1,a1,-1
    80004d2a:	fdf5                	bnez	a1,80004d26 <_ZN5alloc11collections5btree6remove269_$LT$impl$u20$alloc..collections..btree..node..Handle$LT$alloc..collections..btree..node..NodeRef$LT$alloc..collections..btree..node..marker..Mut$C$K$C$V$C$alloc..collections..btree..node..marker..LeafOrInternal$GT$$C$alloc..collections..btree..node..marker..KV$GT$$GT$18remove_kv_tracking17h6a8524fa6587ba62E+0xc2>
    80004d2c:	4601                	li	a2,0
    80004d2e:	e098                	sd	a4,0(s1)
    80004d30:	e49c                	sd	a5,8(s1)
    80004d32:	0004b823          	sd	zero,16(s1)
    80004d36:	ec88                	sd	a0,24(s1)
    80004d38:	f090                	sd	a2,32(s1)
    80004d3a:	60e6                	ld	ra,88(sp)
    80004d3c:	6446                	ld	s0,80(sp)
    80004d3e:	64a6                	ld	s1,72(sp)
    80004d40:	6125                	addi	sp,sp,96
    80004d42:	8082                	ret

0000000080004d44 <_ZN5alloc11collections5btree6remove269_$LT$impl$u20$alloc..collections..btree..node..Handle$LT$alloc..collections..btree..node..NodeRef$LT$alloc..collections..btree..node..marker..Mut$C$K$C$V$C$alloc..collections..btree..node..marker..LeafOrInternal$GT$$C$alloc..collections..btree..node..marker..KV$GT$$GT$18remove_kv_tracking17hca62ef65451dee63E>:
    80004d44:	711d                	addi	sp,sp,-96
    80004d46:	ec86                	sd	ra,88(sp)
    80004d48:	e8a2                	sd	s0,80(sp)
    80004d4a:	e4a6                	sd	s1,72(sp)
    80004d4c:	1080                	addi	s0,sp,96
    80004d4e:	6198                	ld	a4,0(a1)
    80004d50:	6594                	ld	a3,8(a1)
    80004d52:	698c                	ld	a1,16(a1)
    80004d54:	84aa                	mv	s1,a0
    80004d56:	cb3d                	beqz	a4,80004dcc <_ZN5alloc11collections5btree6remove269_$LT$impl$u20$alloc..collections..btree..node..Handle$LT$alloc..collections..btree..node..NodeRef$LT$alloc..collections..btree..node..marker..Mut$C$K$C$V$C$alloc..collections..btree..node..marker..LeafOrInternal$GT$$C$alloc..collections..btree..node..marker..KV$GT$$GT$18remove_kv_tracking17hca62ef65451dee63E+0x88>
    80004d58:	00359513          	slli	a0,a1,0x3
    80004d5c:	9536                	add	a0,a0,a3
    80004d5e:	6168                	ld	a0,192(a0)
    80004d60:	fff70593          	addi	a1,a4,-1
    80004d64:	c981                	beqz	a1,80004d74 <_ZN5alloc11collections5btree6remove269_$LT$impl$u20$alloc..collections..btree..node..Handle$LT$alloc..collections..btree..node..NodeRef$LT$alloc..collections..btree..node..marker..Mut$C$K$C$V$C$alloc..collections..btree..node..marker..LeafOrInternal$GT$$C$alloc..collections..btree..node..marker..KV$GT$$GT$18remove_kv_tracking17hca62ef65451dee63E+0x30>
    80004d66:	0ba55683          	lhu	a3,186(a0)
    80004d6a:	068e                	slli	a3,a3,0x3
    80004d6c:	9536                	add	a0,a0,a3
    80004d6e:	6168                	ld	a0,192(a0)
    80004d70:	15fd                	addi	a1,a1,-1
    80004d72:	f9f5                	bnez	a1,80004d66 <_ZN5alloc11collections5btree6remove269_$LT$impl$u20$alloc..collections..btree..node..Handle$LT$alloc..collections..btree..node..NodeRef$LT$alloc..collections..btree..node..marker..Mut$C$K$C$V$C$alloc..collections..btree..node..marker..LeafOrInternal$GT$$C$alloc..collections..btree..node..marker..KV$GT$$GT$18remove_kv_tracking17hca62ef65451dee63E+0x22>
    80004d74:	0ba55583          	lhu	a1,186(a0)
    80004d78:	15fd                	addi	a1,a1,-1
    80004d7a:	fc043823          	sd	zero,-48(s0)
    80004d7e:	fca43c23          	sd	a0,-40(s0)
    80004d82:	feb43023          	sd	a1,-32(s0)
    80004d86:	fa840513          	addi	a0,s0,-88
    80004d8a:	fd040593          	addi	a1,s0,-48
    80004d8e:	fffff097          	auipc	ra,0xfffff
    80004d92:	78a080e7          	jalr	1930(ra) # 80004518 <_ZN5alloc11collections5btree6remove259_$LT$impl$u20$alloc..collections..btree..node..Handle$LT$alloc..collections..btree..node..NodeRef$LT$alloc..collections..btree..node..marker..Mut$C$K$C$V$C$alloc..collections..btree..node..marker..Leaf$GT$$C$alloc..collections..btree..node..marker..KV$GT$$GT$14remove_leaf_kv17h0a811426753c7a2cE>
    80004d96:	fc043703          	ld	a4,-64(s0)
    80004d9a:	fa843883          	ld	a7,-88(s0)
    80004d9e:	fb043803          	ld	a6,-80(s0)
    80004da2:	fc843603          	ld	a2,-56(s0)
    80004da6:	0ba75503          	lhu	a0,186(a4)
    80004daa:	fb843583          	ld	a1,-72(s0)
    80004dae:	00a67463          	bgeu	a2,a0,80004db6 <_ZN5alloc11collections5btree6remove269_$LT$impl$u20$alloc..collections..btree..node..Handle$LT$alloc..collections..btree..node..NodeRef$LT$alloc..collections..btree..node..marker..Mut$C$K$C$V$C$alloc..collections..btree..node..marker..LeafOrInternal$GT$$C$alloc..collections..btree..node..marker..KV$GT$$GT$18remove_kv_tracking17hca62ef65451dee63E+0x72>
    80004db2:	853a                	mv	a0,a4
    80004db4:	a81d                	j	80004dea <_ZN5alloc11collections5btree6remove269_$LT$impl$u20$alloc..collections..btree..node..Handle$LT$alloc..collections..btree..node..NodeRef$LT$alloc..collections..btree..node..marker..Mut$C$K$C$V$C$alloc..collections..btree..node..marker..LeafOrInternal$GT$$C$alloc..collections..btree..node..marker..KV$GT$$GT$18remove_kv_tracking17hca62ef65451dee63E+0xa6>
    80004db6:	6308                	ld	a0,0(a4)
    80004db8:	c905                	beqz	a0,80004de8 <_ZN5alloc11collections5btree6remove269_$LT$impl$u20$alloc..collections..btree..node..Handle$LT$alloc..collections..btree..node..NodeRef$LT$alloc..collections..btree..node..marker..Mut$C$K$C$V$C$alloc..collections..btree..node..marker..LeafOrInternal$GT$$C$alloc..collections..btree..node..marker..KV$GT$$GT$18remove_kv_tracking17hca62ef65451dee63E+0xa4>
    80004dba:	0b875603          	lhu	a2,184(a4)
    80004dbe:	0ba55783          	lhu	a5,186(a0)
    80004dc2:	0585                	addi	a1,a1,1
    80004dc4:	872a                	mv	a4,a0
    80004dc6:	fef678e3          	bgeu	a2,a5,80004db6 <_ZN5alloc11collections5btree6remove269_$LT$impl$u20$alloc..collections..btree..node..Handle$LT$alloc..collections..btree..node..NodeRef$LT$alloc..collections..btree..node..marker..Mut$C$K$C$V$C$alloc..collections..btree..node..marker..LeafOrInternal$GT$$C$alloc..collections..btree..node..marker..KV$GT$$GT$18remove_kv_tracking17hca62ef65451dee63E+0x72>
    80004dca:	a005                	j	80004dea <_ZN5alloc11collections5btree6remove269_$LT$impl$u20$alloc..collections..btree..node..Handle$LT$alloc..collections..btree..node..NodeRef$LT$alloc..collections..btree..node..marker..Mut$C$K$C$V$C$alloc..collections..btree..node..marker..LeafOrInternal$GT$$C$alloc..collections..btree..node..marker..KV$GT$$GT$18remove_kv_tracking17hca62ef65451dee63E+0xa6>
    80004dcc:	fa043423          	sd	zero,-88(s0)
    80004dd0:	fad43823          	sd	a3,-80(s0)
    80004dd4:	fab43c23          	sd	a1,-72(s0)
    80004dd8:	fa840593          	addi	a1,s0,-88
    80004ddc:	8526                	mv	a0,s1
    80004dde:	fffff097          	auipc	ra,0xfffff
    80004de2:	73a080e7          	jalr	1850(ra) # 80004518 <_ZN5alloc11collections5btree6remove259_$LT$impl$u20$alloc..collections..btree..node..Handle$LT$alloc..collections..btree..node..NodeRef$LT$alloc..collections..btree..node..marker..Mut$C$K$C$V$C$alloc..collections..btree..node..marker..Leaf$GT$$C$alloc..collections..btree..node..marker..KV$GT$$GT$14remove_leaf_kv17h0a811426753c7a2cE>
    80004de6:	a815                	j	80004e1a <_ZN5alloc11collections5btree6remove269_$LT$impl$u20$alloc..collections..btree..node..Handle$LT$alloc..collections..btree..node..NodeRef$LT$alloc..collections..btree..node..marker..Mut$C$K$C$V$C$alloc..collections..btree..node..marker..LeafOrInternal$GT$$C$alloc..collections..btree..node..marker..KV$GT$$GT$18remove_kv_tracking17hca62ef65451dee63E+0xd6>
    80004de8:	4501                	li	a0,0
    80004dea:	00361713          	slli	a4,a2,0x3
    80004dee:	00e506b3          	add	a3,a0,a4
    80004df2:	6698                	ld	a4,8(a3)
    80004df4:	72bc                	ld	a5,96(a3)
    80004df6:	0116b423          	sd	a7,8(a3)
    80004dfa:	0706b023          	sd	a6,96(a3)
    80004dfe:	0605                	addi	a2,a2,1
    80004e00:	c599                	beqz	a1,80004e0e <_ZN5alloc11collections5btree6remove269_$LT$impl$u20$alloc..collections..btree..node..Handle$LT$alloc..collections..btree..node..NodeRef$LT$alloc..collections..btree..node..marker..Mut$C$K$C$V$C$alloc..collections..btree..node..marker..LeafOrInternal$GT$$C$alloc..collections..btree..node..marker..KV$GT$$GT$18remove_kv_tracking17hca62ef65451dee63E+0xca>
    80004e02:	060e                	slli	a2,a2,0x3
    80004e04:	9532                	add	a0,a0,a2
    80004e06:	6168                	ld	a0,192(a0)
    80004e08:	15fd                	addi	a1,a1,-1
    80004e0a:	fdf5                	bnez	a1,80004e06 <_ZN5alloc11collections5btree6remove269_$LT$impl$u20$alloc..collections..btree..node..Handle$LT$alloc..collections..btree..node..NodeRef$LT$alloc..collections..btree..node..marker..Mut$C$K$C$V$C$alloc..collections..btree..node..marker..LeafOrInternal$GT$$C$alloc..collections..btree..node..marker..KV$GT$$GT$18remove_kv_tracking17hca62ef65451dee63E+0xc2>
    80004e0c:	4601                	li	a2,0
    80004e0e:	e098                	sd	a4,0(s1)
    80004e10:	e49c                	sd	a5,8(s1)
    80004e12:	0004b823          	sd	zero,16(s1)
    80004e16:	ec88                	sd	a0,24(s1)
    80004e18:	f090                	sd	a2,32(s1)
    80004e1a:	60e6                	ld	ra,88(sp)
    80004e1c:	6446                	ld	s0,80(sp)
    80004e1e:	64a6                	ld	s1,72(sp)
    80004e20:	6125                	addi	sp,sp,96
    80004e22:	8082                	ret

0000000080004e24 <_ZN5alloc7raw_vec11finish_grow17h84ae79449630afe6E.llvm.12244794194310065552>:
    80004e24:	7179                	addi	sp,sp,-48
    80004e26:	f406                	sd	ra,40(sp)
    80004e28:	f022                	sd	s0,32(sp)
    80004e2a:	ec26                	sd	s1,24(sp)
    80004e2c:	e84a                	sd	s2,16(sp)
    80004e2e:	e44e                	sd	s3,8(sp)
    80004e30:	1800                	addi	s0,sp,48
    80004e32:	892e                	mv	s2,a1
    80004e34:	89aa                	mv	s3,a0
    80004e36:	ce19                	beqz	a2,80004e54 <_ZN5alloc7raw_vec11finish_grow17h84ae79449630afe6E.llvm.12244794194310065552+0x30>
    80004e38:	84b2                	mv	s1,a2
    80004e3a:	6a88                	ld	a0,16(a3)
    80004e3c:	c10d                	beqz	a0,80004e5e <_ZN5alloc7raw_vec11finish_grow17h84ae79449630afe6E.llvm.12244794194310065552+0x3a>
    80004e3e:	668c                	ld	a1,8(a3)
    80004e40:	cd99                	beqz	a1,80004e5e <_ZN5alloc7raw_vec11finish_grow17h84ae79449630afe6E.llvm.12244794194310065552+0x3a>
    80004e42:	6288                	ld	a0,0(a3)
    80004e44:	8626                	mv	a2,s1
    80004e46:	86ca                	mv	a3,s2
    80004e48:	00016097          	auipc	ra,0x16
    80004e4c:	382080e7          	jalr	898(ra) # 8001b1ca <__rust_realloc>
    80004e50:	e11d                	bnez	a0,80004e76 <_ZN5alloc7raw_vec11finish_grow17h84ae79449630afe6E.llvm.12244794194310065552+0x52>
    80004e52:	a011                	j	80004e56 <_ZN5alloc7raw_vec11finish_grow17h84ae79449630afe6E.llvm.12244794194310065552+0x32>
    80004e54:	4481                	li	s1,0
    80004e56:	0129b423          	sd	s2,8(s3)
    80004e5a:	4585                	li	a1,1
    80004e5c:	a00d                	j	80004e7e <_ZN5alloc7raw_vec11finish_grow17h84ae79449630afe6E.llvm.12244794194310065552+0x5a>
    80004e5e:	00090a63          	beqz	s2,80004e72 <_ZN5alloc7raw_vec11finish_grow17h84ae79449630afe6E.llvm.12244794194310065552+0x4e>
    80004e62:	854a                	mv	a0,s2
    80004e64:	85a6                	mv	a1,s1
    80004e66:	00016097          	auipc	ra,0x16
    80004e6a:	354080e7          	jalr	852(ra) # 8001b1ba <__rust_alloc>
    80004e6e:	e501                	bnez	a0,80004e76 <_ZN5alloc7raw_vec11finish_grow17h84ae79449630afe6E.llvm.12244794194310065552+0x52>
