
target/riscv64gc-unknown-none-elf/debug/hypocaust-2:     file format elf64-littleriscv


Disassembly of section .text:

0000000080200000 <_start>:
    80200000:	0003a117          	auipc	sp,0x3a
    80200004:	00010113          	mv	sp,sp
    80200008:	63c1                	lui	t2,0x10
    8020000a:	00150e13          	addi	t3,a0,1
    8020000e:	03c383b3          	mul	t2,t2,t3
    80200012:	911e                	add	sp,sp,t2
    80200014:	0001f097          	auipc	ra,0x1f
    80200018:	1fa080e7          	jalr	506(ra) # 8021f20e <hentry>
	...

0000000080201000 <__alltraps>:
    80201000:	14011173          	csrrw	sp,sscratch,sp
    80201004:	e406                	sd	ra,8(sp)
    80201006:	ec0e                	sd	gp,24(sp)
    80201008:	f416                	sd	t0,40(sp)
    8020100a:	f81a                	sd	t1,48(sp)
    8020100c:	fc1e                	sd	t2,56(sp)
    8020100e:	e0a2                	sd	s0,64(sp)
    80201010:	e4a6                	sd	s1,72(sp)
    80201012:	e8aa                	sd	a0,80(sp)
    80201014:	ecae                	sd	a1,88(sp)
    80201016:	f0b2                	sd	a2,96(sp)
    80201018:	f4b6                	sd	a3,104(sp)
    8020101a:	f8ba                	sd	a4,112(sp)
    8020101c:	fcbe                	sd	a5,120(sp)
    8020101e:	e142                	sd	a6,128(sp)
    80201020:	e546                	sd	a7,136(sp)
    80201022:	e94a                	sd	s2,144(sp)
    80201024:	ed4e                	sd	s3,152(sp)
    80201026:	f152                	sd	s4,160(sp)
    80201028:	f556                	sd	s5,168(sp)
    8020102a:	f95a                	sd	s6,176(sp)
    8020102c:	fd5e                	sd	s7,184(sp)
    8020102e:	e1e2                	sd	s8,192(sp)
    80201030:	e5e6                	sd	s9,200(sp)
    80201032:	e9ea                	sd	s10,208(sp)
    80201034:	edee                	sd	s11,216(sp)
    80201036:	f1f2                	sd	t3,224(sp)
    80201038:	f5f6                	sd	t4,232(sp)
    8020103a:	f9fa                	sd	t5,240(sp)
    8020103c:	fdfe                	sd	t6,248(sp)
    8020103e:	100022f3          	csrr	t0,sstatus
    80201042:	14102373          	csrr	t1,sepc
    80201046:	e216                	sd	t0,256(sp)
    80201048:	e61a                	sd	t1,264(sp)
    8020104a:	140023f3          	csrr	t2,sscratch
    8020104e:	e81e                	sd	t2,16(sp)
    80201050:	62d2                	ld	t0,272(sp)
    80201052:	7312                	ld	t1,288(sp)
    80201054:	600022f3          	csrr	t0,0x600
    80201058:	f616                	sd	t0,296(sp)
    8020105a:	6172                	ld	sp,280(sp)
    8020105c:	8302                	jr	t1

000000008020105e <__restore>:
    8020105e:	14051073          	csrw	sscratch,a0
    80201062:	812a                	mv	sp,a0
    80201064:	6292                	ld	t0,256(sp)
    80201066:	6332                	ld	t1,264(sp)
    80201068:	10029073          	csrw	sstatus,t0
    8020106c:	14131073          	csrw	sepc,t1
    80201070:	72b2                	ld	t0,296(sp)
    80201072:	60029073          	csrw	0x600,t0
    80201076:	60a2                	ld	ra,8(sp)
    80201078:	61e2                	ld	gp,24(sp)
    8020107a:	72a2                	ld	t0,40(sp)
    8020107c:	7342                	ld	t1,48(sp)
    8020107e:	73e2                	ld	t2,56(sp)
    80201080:	6406                	ld	s0,64(sp)
    80201082:	64a6                	ld	s1,72(sp)
    80201084:	6546                	ld	a0,80(sp)
    80201086:	65e6                	ld	a1,88(sp)
    80201088:	7606                	ld	a2,96(sp)
    8020108a:	76a6                	ld	a3,104(sp)
    8020108c:	7746                	ld	a4,112(sp)
    8020108e:	77e6                	ld	a5,120(sp)
    80201090:	680a                	ld	a6,128(sp)
    80201092:	68aa                	ld	a7,136(sp)
    80201094:	694a                	ld	s2,144(sp)
    80201096:	69ea                	ld	s3,152(sp)
    80201098:	7a0a                	ld	s4,160(sp)
    8020109a:	7aaa                	ld	s5,168(sp)
    8020109c:	7b4a                	ld	s6,176(sp)
    8020109e:	7bea                	ld	s7,184(sp)
    802010a0:	6c0e                	ld	s8,192(sp)
    802010a2:	6cae                	ld	s9,200(sp)
    802010a4:	6d4e                	ld	s10,208(sp)
    802010a6:	6dee                	ld	s11,216(sp)
    802010a8:	7e0e                	ld	t3,224(sp)
    802010aa:	7eae                	ld	t4,232(sp)
    802010ac:	7f4e                	ld	t5,240(sp)
    802010ae:	7fee                	ld	t6,248(sp)
    802010b0:	6142                	ld	sp,16(sp)
    802010b2:	10200073          	sret
    802010b6:	0001                	nop

00000000802010b8 <__alltraps_k>:
    802010b8:	716d                	addi	sp,sp,-272
    802010ba:	e406                	sd	ra,8(sp)
    802010bc:	ec0e                	sd	gp,24(sp)
    802010be:	f416                	sd	t0,40(sp)
    802010c0:	f81a                	sd	t1,48(sp)
    802010c2:	fc1e                	sd	t2,56(sp)
    802010c4:	e0a2                	sd	s0,64(sp)
    802010c6:	e4a6                	sd	s1,72(sp)
    802010c8:	e8aa                	sd	a0,80(sp)
    802010ca:	ecae                	sd	a1,88(sp)
    802010cc:	f0b2                	sd	a2,96(sp)
    802010ce:	f4b6                	sd	a3,104(sp)
    802010d0:	f8ba                	sd	a4,112(sp)
    802010d2:	fcbe                	sd	a5,120(sp)
    802010d4:	e142                	sd	a6,128(sp)
    802010d6:	e546                	sd	a7,136(sp)
    802010d8:	e94a                	sd	s2,144(sp)
    802010da:	ed4e                	sd	s3,152(sp)
    802010dc:	f152                	sd	s4,160(sp)
    802010de:	f556                	sd	s5,168(sp)
    802010e0:	f95a                	sd	s6,176(sp)
    802010e2:	fd5e                	sd	s7,184(sp)
    802010e4:	e1e2                	sd	s8,192(sp)
    802010e6:	e5e6                	sd	s9,200(sp)
    802010e8:	e9ea                	sd	s10,208(sp)
    802010ea:	edee                	sd	s11,216(sp)
    802010ec:	f1f2                	sd	t3,224(sp)
    802010ee:	f5f6                	sd	t4,232(sp)
    802010f0:	f9fa                	sd	t5,240(sp)
    802010f2:	fdfe                	sd	t6,248(sp)
    802010f4:	100022f3          	csrr	t0,sstatus
    802010f8:	14102373          	csrr	t1,sepc
    802010fc:	e216                	sd	t0,256(sp)
    802010fe:	e61a                	sd	t1,264(sp)
    80201100:	850a                	mv	a0,sp
    80201102:	140023f3          	csrr	t2,sscratch
    80201106:	9382                	jalr	t2

0000000080201108 <__restore_k>:
    80201108:	6292                	ld	t0,256(sp)
    8020110a:	6332                	ld	t1,264(sp)
    8020110c:	10029073          	csrw	sstatus,t0
    80201110:	14131073          	csrw	sepc,t1
    80201114:	60a2                	ld	ra,8(sp)
    80201116:	61e2                	ld	gp,24(sp)
    80201118:	72a2                	ld	t0,40(sp)
    8020111a:	7342                	ld	t1,48(sp)
    8020111c:	73e2                	ld	t2,56(sp)
    8020111e:	6406                	ld	s0,64(sp)
    80201120:	64a6                	ld	s1,72(sp)
    80201122:	6546                	ld	a0,80(sp)
    80201124:	65e6                	ld	a1,88(sp)
    80201126:	7606                	ld	a2,96(sp)
    80201128:	76a6                	ld	a3,104(sp)
    8020112a:	7746                	ld	a4,112(sp)
    8020112c:	77e6                	ld	a5,120(sp)
    8020112e:	680a                	ld	a6,128(sp)
    80201130:	68aa                	ld	a7,136(sp)
    80201132:	694a                	ld	s2,144(sp)
    80201134:	69ea                	ld	s3,152(sp)
    80201136:	7a0a                	ld	s4,160(sp)
    80201138:	7aaa                	ld	s5,168(sp)
    8020113a:	7b4a                	ld	s6,176(sp)
    8020113c:	7bea                	ld	s7,184(sp)
    8020113e:	6c0e                	ld	s8,192(sp)
    80201140:	6cae                	ld	s9,200(sp)
    80201142:	6d4e                	ld	s10,208(sp)
    80201144:	6dee                	ld	s11,216(sp)
    80201146:	7e0e                	ld	t3,224(sp)
    80201148:	7eae                	ld	t4,232(sp)
    8020114a:	7f4e                	ld	t5,240(sp)
    8020114c:	7fee                	ld	t6,248(sp)
    8020114e:	6151                	addi	sp,sp,272
    80201150:	10200073          	sret
	...

0000000080202000 <_ZN5alloc5boxed16Box$LT$T$C$A$GT$11into_unique17h0eba5179d2f11f97E>:
    80202000:	7159                	addi	sp,sp,-112
    80202002:	f486                	sd	ra,104(sp)
    80202004:	f0a2                	sd	s0,96(sp)
    80202006:	1880                	addi	s0,sp,112
    80202008:	f8a43823          	sd	a0,-112(s0)
    8020200c:	f9040513          	addi	a0,s0,-112
    80202010:	fca43823          	sd	a0,-48(s0)
    80202014:	fa840513          	addi	a0,s0,-88
    80202018:	fca43c23          	sd	a0,-40(s0)
    8020201c:	f9043503          	ld	a0,-112(s0)
    80202020:	00000097          	auipc	ra,0x0
    80202024:	7c8080e7          	jalr	1992(ra) # 802027e8 <_ZN5alloc5boxed16Box$LT$T$C$A$GT$4leak17h1c98d2afbb72a59eE>
    80202028:	fea43023          	sd	a0,-32(s0)
    8020202c:	fea43423          	sd	a0,-24(s0)
    80202030:	faa43823          	sd	a0,-80(s0)
    80202034:	fb043503          	ld	a0,-80(s0)
    80202038:	faa43023          	sd	a0,-96(s0)
    8020203c:	fa043503          	ld	a0,-96(s0)
    80202040:	f8a43c23          	sd	a0,-104(s0)
    80202044:	f9843503          	ld	a0,-104(s0)
    80202048:	70a6                	ld	ra,104(sp)
    8020204a:	7406                	ld	s0,96(sp)
    8020204c:	6165                	addi	sp,sp,112
    8020204e:	8082                	ret

0000000080202050 <_ZN5alloc5boxed16Box$LT$T$C$A$GT$11into_unique17h117690aab14f2898E>:
    80202050:	7135                	addi	sp,sp,-160
    80202052:	ed06                	sd	ra,152(sp)
    80202054:	e922                	sd	s0,144(sp)
    80202056:	1100                	addi	s0,sp,160
    80202058:	f6a43023          	sd	a0,-160(s0)
    8020205c:	f6b43423          	sd	a1,-152(s0)
    80202060:	f6040513          	addi	a0,s0,-160
    80202064:	fca43023          	sd	a0,-64(s0)
    80202068:	f9040513          	addi	a0,s0,-112
    8020206c:	fca43423          	sd	a0,-56(s0)
    80202070:	f6043503          	ld	a0,-160(s0)
    80202074:	f6843583          	ld	a1,-152(s0)
    80202078:	00001097          	auipc	ra,0x1
    8020207c:	800080e7          	jalr	-2048(ra) # 80202878 <_ZN5alloc5boxed16Box$LT$T$C$A$GT$4leak17hbc66134ada7142aeE>
    80202080:	fca43823          	sd	a0,-48(s0)
    80202084:	fcb43c23          	sd	a1,-40(s0)
    80202088:	fea43023          	sd	a0,-32(s0)
    8020208c:	feb43423          	sd	a1,-24(s0)
    80202090:	f8a43c23          	sd	a0,-104(s0)
    80202094:	fab43023          	sd	a1,-96(s0)
    80202098:	f9843583          	ld	a1,-104(s0)
    8020209c:	fa043503          	ld	a0,-96(s0)
    802020a0:	f8b43023          	sd	a1,-128(s0)
    802020a4:	f8a43423          	sd	a0,-120(s0)
    802020a8:	f8043583          	ld	a1,-128(s0)
    802020ac:	f8843503          	ld	a0,-120(s0)
    802020b0:	f6b43823          	sd	a1,-144(s0)
    802020b4:	f6a43c23          	sd	a0,-136(s0)
    802020b8:	f7043503          	ld	a0,-144(s0)
    802020bc:	f7843583          	ld	a1,-136(s0)
    802020c0:	60ea                	ld	ra,152(sp)
    802020c2:	644a                	ld	s0,144(sp)
    802020c4:	610d                	addi	sp,sp,160
    802020c6:	8082                	ret

00000000802020c8 <_ZN5alloc5boxed16Box$LT$T$C$A$GT$11into_unique17h159a28c6e21ae889E>:
    802020c8:	7159                	addi	sp,sp,-112
    802020ca:	f486                	sd	ra,104(sp)
    802020cc:	f0a2                	sd	s0,96(sp)
    802020ce:	1880                	addi	s0,sp,112
    802020d0:	f8a43823          	sd	a0,-112(s0)
    802020d4:	f9040513          	addi	a0,s0,-112
    802020d8:	fca43823          	sd	a0,-48(s0)
    802020dc:	fa840513          	addi	a0,s0,-88
    802020e0:	fca43c23          	sd	a0,-40(s0)
    802020e4:	f9043503          	ld	a0,-112(s0)
    802020e8:	00000097          	auipc	ra,0x0
    802020ec:	760080e7          	jalr	1888(ra) # 80202848 <_ZN5alloc5boxed16Box$LT$T$C$A$GT$4leak17h8169ce6f74d91c77E>
    802020f0:	fea43023          	sd	a0,-32(s0)
    802020f4:	fea43423          	sd	a0,-24(s0)
    802020f8:	faa43823          	sd	a0,-80(s0)
    802020fc:	fb043503          	ld	a0,-80(s0)
    80202100:	faa43023          	sd	a0,-96(s0)
    80202104:	fa043503          	ld	a0,-96(s0)
    80202108:	f8a43c23          	sd	a0,-104(s0)
    8020210c:	f9843503          	ld	a0,-104(s0)
    80202110:	70a6                	ld	ra,104(sp)
    80202112:	7406                	ld	s0,96(sp)
    80202114:	6165                	addi	sp,sp,112
    80202116:	8082                	ret

0000000080202118 <_ZN5alloc5boxed16Box$LT$T$C$A$GT$11into_unique17h93dfb6337046f8abE>:
    80202118:	7159                	addi	sp,sp,-112
    8020211a:	f486                	sd	ra,104(sp)
    8020211c:	f0a2                	sd	s0,96(sp)
    8020211e:	1880                	addi	s0,sp,112
    80202120:	f8a43823          	sd	a0,-112(s0)
    80202124:	f9040513          	addi	a0,s0,-112
    80202128:	fca43823          	sd	a0,-48(s0)
    8020212c:	fa840513          	addi	a0,s0,-88
    80202130:	fca43c23          	sd	a0,-40(s0)
    80202134:	f9043503          	ld	a0,-112(s0)
    80202138:	00000097          	auipc	ra,0x0
    8020213c:	788080e7          	jalr	1928(ra) # 802028c0 <_ZN5alloc5boxed16Box$LT$T$C$A$GT$4leak17hbf31e7f5fe2942c5E>
    80202140:	fea43023          	sd	a0,-32(s0)
    80202144:	fea43423          	sd	a0,-24(s0)
    80202148:	faa43823          	sd	a0,-80(s0)
    8020214c:	fb043503          	ld	a0,-80(s0)
    80202150:	faa43023          	sd	a0,-96(s0)
    80202154:	fa043503          	ld	a0,-96(s0)
    80202158:	f8a43c23          	sd	a0,-104(s0)
    8020215c:	f9843503          	ld	a0,-104(s0)
    80202160:	70a6                	ld	ra,104(sp)
    80202162:	7406                	ld	s0,96(sp)
    80202164:	6165                	addi	sp,sp,112
    80202166:	8082                	ret

0000000080202168 <_ZN5alloc5boxed16Box$LT$T$C$A$GT$11into_unique17hfb9a4f542ef51ee5E>:
    80202168:	7159                	addi	sp,sp,-112
    8020216a:	f486                	sd	ra,104(sp)
    8020216c:	f0a2                	sd	s0,96(sp)
    8020216e:	1880                	addi	s0,sp,112
    80202170:	f8a43823          	sd	a0,-112(s0)
    80202174:	f9040513          	addi	a0,s0,-112
    80202178:	fca43823          	sd	a0,-48(s0)
    8020217c:	fa840513          	addi	a0,s0,-88
    80202180:	fca43c23          	sd	a0,-40(s0)
    80202184:	f9043503          	ld	a0,-112(s0)
    80202188:	00000097          	auipc	ra,0x0
    8020218c:	690080e7          	jalr	1680(ra) # 80202818 <_ZN5alloc5boxed16Box$LT$T$C$A$GT$4leak17h31ade4505e0e8651E>
    80202190:	fea43023          	sd	a0,-32(s0)
    80202194:	fea43423          	sd	a0,-24(s0)
    80202198:	faa43823          	sd	a0,-80(s0)
    8020219c:	fb043503          	ld	a0,-80(s0)
    802021a0:	faa43023          	sd	a0,-96(s0)
    802021a4:	fa043503          	ld	a0,-96(s0)
    802021a8:	f8a43c23          	sd	a0,-104(s0)
    802021ac:	f9843503          	ld	a0,-104(s0)
    802021b0:	70a6                	ld	ra,104(sp)
    802021b2:	7406                	ld	s0,96(sp)
    802021b4:	6165                	addi	sp,sp,112
    802021b6:	8082                	ret

00000000802021b8 <_ZN5alloc5boxed16Box$LT$T$C$A$GT$13new_uninit_in17h4431e8e12782be96E>:
    802021b8:	7159                	addi	sp,sp,-112
    802021ba:	f486                	sd	ra,104(sp)
    802021bc:	f0a2                	sd	s0,96(sp)
    802021be:	1880                	addi	s0,sp,112
    802021c0:	00014097          	auipc	ra,0x14
    802021c4:	352080e7          	jalr	850(ra) # 80216512 <_ZN4core5alloc6layout10size_align17h2f7f0e011e16c5b9E>
    802021c8:	f8a43823          	sd	a0,-112(s0)
    802021cc:	852e                	mv	a0,a1
    802021ce:	f9043583          	ld	a1,-112(s0)
    802021d2:	fab43c23          	sd	a1,-72(s0)
    802021d6:	fca43023          	sd	a0,-64(s0)
    802021da:	fcb43423          	sd	a1,-56(s0)
    802021de:	fca43823          	sd	a0,-48(s0)
    802021e2:	fca43c23          	sd	a0,-40(s0)
    802021e6:	fea43023          	sd	a0,-32(s0)
    802021ea:	fe043503          	ld	a0,-32(s0)
    802021ee:	f8b43c23          	sd	a1,-104(s0)
    802021f2:	faa43023          	sd	a0,-96(s0)
    802021f6:	00000097          	auipc	ra,0x0
    802021fa:	4a8080e7          	jalr	1192(ra) # 8020269e <_ZN5alloc5boxed16Box$LT$T$C$A$GT$17try_new_uninit_in17h7d77a280840d8b23E>
    802021fe:	faa43423          	sd	a0,-88(s0)
    80202202:	fa843503          	ld	a0,-88(s0)
    80202206:	4581                	li	a1,0
    80202208:	00b50b63          	beq	a0,a1,8020221e <_ZN5alloc5boxed16Box$LT$T$C$A$GT$13new_uninit_in17h4431e8e12782be96E+0x66>
    8020220c:	a009                	j	8020220e <_ZN5alloc5boxed16Box$LT$T$C$A$GT$13new_uninit_in17h4431e8e12782be96E+0x56>
    8020220e:	fa843503          	ld	a0,-88(s0)
    80202212:	fea43423          	sd	a0,-24(s0)
    80202216:	70a6                	ld	ra,104(sp)
    80202218:	7406                	ld	s0,96(sp)
    8020221a:	6165                	addi	sp,sp,112
    8020221c:	8082                	ret
    8020221e:	f9843503          	ld	a0,-104(s0)
    80202222:	fa043583          	ld	a1,-96(s0)
    80202226:	0002b097          	auipc	ra,0x2b
    8020222a:	65c080e7          	jalr	1628(ra) # 8022d882 <_ZN5alloc5alloc18handle_alloc_error17h3beb0aac80b0ce78E>
	...

0000000080202230 <_ZN5alloc5boxed16Box$LT$T$C$A$GT$13new_uninit_in17h81cbc2aeb010b6b5E>:
    80202230:	7159                	addi	sp,sp,-112
    80202232:	f486                	sd	ra,104(sp)
    80202234:	f0a2                	sd	s0,96(sp)
    80202236:	1880                	addi	s0,sp,112
    80202238:	00014097          	auipc	ra,0x14
    8020223c:	372080e7          	jalr	882(ra) # 802165aa <_ZN4core5alloc6layout10size_align17h8d2ec4b48fea102aE>
    80202240:	f8a43823          	sd	a0,-112(s0)
    80202244:	852e                	mv	a0,a1
    80202246:	f9043583          	ld	a1,-112(s0)
    8020224a:	fab43c23          	sd	a1,-72(s0)
    8020224e:	fca43023          	sd	a0,-64(s0)
    80202252:	fcb43423          	sd	a1,-56(s0)
    80202256:	fca43823          	sd	a0,-48(s0)
    8020225a:	fca43c23          	sd	a0,-40(s0)
    8020225e:	fea43023          	sd	a0,-32(s0)
    80202262:	fe043503          	ld	a0,-32(s0)
    80202266:	f8b43c23          	sd	a1,-104(s0)
    8020226a:	faa43023          	sd	a0,-96(s0)
    8020226e:	00000097          	auipc	ra,0x0
    80202272:	12a080e7          	jalr	298(ra) # 80202398 <_ZN5alloc5boxed16Box$LT$T$C$A$GT$17try_new_uninit_in17h1a280183046ad79eE>
    80202276:	faa43423          	sd	a0,-88(s0)
    8020227a:	fa843503          	ld	a0,-88(s0)
    8020227e:	4581                	li	a1,0
    80202280:	00b50b63          	beq	a0,a1,80202296 <_ZN5alloc5boxed16Box$LT$T$C$A$GT$13new_uninit_in17h81cbc2aeb010b6b5E+0x66>
    80202284:	a009                	j	80202286 <_ZN5alloc5boxed16Box$LT$T$C$A$GT$13new_uninit_in17h81cbc2aeb010b6b5E+0x56>
    80202286:	fa843503          	ld	a0,-88(s0)
    8020228a:	fea43423          	sd	a0,-24(s0)
    8020228e:	70a6                	ld	ra,104(sp)
    80202290:	7406                	ld	s0,96(sp)
    80202292:	6165                	addi	sp,sp,112
    80202294:	8082                	ret
    80202296:	f9843503          	ld	a0,-104(s0)
    8020229a:	fa043583          	ld	a1,-96(s0)
    8020229e:	0002b097          	auipc	ra,0x2b
    802022a2:	5e4080e7          	jalr	1508(ra) # 8022d882 <_ZN5alloc5alloc18handle_alloc_error17h3beb0aac80b0ce78E>
	...

00000000802022a8 <_ZN5alloc5boxed16Box$LT$T$C$A$GT$13new_uninit_in17h9d3be75d5dfa589dE>:
    802022a8:	7159                	addi	sp,sp,-112
    802022aa:	f486                	sd	ra,104(sp)
    802022ac:	f0a2                	sd	s0,96(sp)
    802022ae:	1880                	addi	s0,sp,112
    802022b0:	00014097          	auipc	ra,0x14
    802022b4:	2ae080e7          	jalr	686(ra) # 8021655e <_ZN4core5alloc6layout10size_align17h550890bb8ed55899E>
    802022b8:	f8a43823          	sd	a0,-112(s0)
    802022bc:	852e                	mv	a0,a1
    802022be:	f9043583          	ld	a1,-112(s0)
    802022c2:	fab43c23          	sd	a1,-72(s0)
    802022c6:	fca43023          	sd	a0,-64(s0)
    802022ca:	fcb43423          	sd	a1,-56(s0)
    802022ce:	fca43823          	sd	a0,-48(s0)
    802022d2:	fca43c23          	sd	a0,-40(s0)
    802022d6:	fea43023          	sd	a0,-32(s0)
    802022da:	fe043503          	ld	a0,-32(s0)
    802022de:	f8b43c23          	sd	a1,-104(s0)
    802022e2:	faa43023          	sd	a0,-96(s0)
    802022e6:	00000097          	auipc	ra,0x0
    802022ea:	2b6080e7          	jalr	694(ra) # 8020259c <_ZN5alloc5boxed16Box$LT$T$C$A$GT$17try_new_uninit_in17h747568f352e33427E>
    802022ee:	faa43423          	sd	a0,-88(s0)
    802022f2:	fa843503          	ld	a0,-88(s0)
    802022f6:	4581                	li	a1,0
    802022f8:	00b50b63          	beq	a0,a1,8020230e <_ZN5alloc5boxed16Box$LT$T$C$A$GT$13new_uninit_in17h9d3be75d5dfa589dE+0x66>
    802022fc:	a009                	j	802022fe <_ZN5alloc5boxed16Box$LT$T$C$A$GT$13new_uninit_in17h9d3be75d5dfa589dE+0x56>
    802022fe:	fa843503          	ld	a0,-88(s0)
    80202302:	fea43423          	sd	a0,-24(s0)
    80202306:	70a6                	ld	ra,104(sp)
    80202308:	7406                	ld	s0,96(sp)
    8020230a:	6165                	addi	sp,sp,112
    8020230c:	8082                	ret
    8020230e:	f9843503          	ld	a0,-104(s0)
    80202312:	fa043583          	ld	a1,-96(s0)
    80202316:	0002b097          	auipc	ra,0x2b
    8020231a:	56c080e7          	jalr	1388(ra) # 8022d882 <_ZN5alloc5alloc18handle_alloc_error17h3beb0aac80b0ce78E>
	...

0000000080202320 <_ZN5alloc5boxed16Box$LT$T$C$A$GT$13new_uninit_in17hf6fb1581bb656df0E>:
    80202320:	7159                	addi	sp,sp,-112
    80202322:	f486                	sd	ra,104(sp)
    80202324:	f0a2                	sd	s0,96(sp)
    80202326:	1880                	addi	s0,sp,112
    80202328:	00014097          	auipc	ra,0x14
    8020232c:	1c4080e7          	jalr	452(ra) # 802164ec <_ZN4core5alloc6layout10size_align17h189e56c2bcfe83bcE>
    80202330:	f8a43823          	sd	a0,-112(s0)
    80202334:	852e                	mv	a0,a1
    80202336:	f9043583          	ld	a1,-112(s0)
    8020233a:	fab43c23          	sd	a1,-72(s0)
    8020233e:	fca43023          	sd	a0,-64(s0)
    80202342:	fcb43423          	sd	a1,-56(s0)
    80202346:	fca43823          	sd	a0,-48(s0)
    8020234a:	fca43c23          	sd	a0,-40(s0)
    8020234e:	fea43023          	sd	a0,-32(s0)
    80202352:	fe043503          	ld	a0,-32(s0)
    80202356:	f8b43c23          	sd	a1,-104(s0)
    8020235a:	faa43023          	sd	a0,-96(s0)
    8020235e:	00000097          	auipc	ra,0x0
    80202362:	13c080e7          	jalr	316(ra) # 8020249a <_ZN5alloc5boxed16Box$LT$T$C$A$GT$17try_new_uninit_in17h3de7ba7e931c10a8E>
    80202366:	faa43423          	sd	a0,-88(s0)
    8020236a:	fa843503          	ld	a0,-88(s0)
    8020236e:	4581                	li	a1,0
    80202370:	00b50b63          	beq	a0,a1,80202386 <_ZN5alloc5boxed16Box$LT$T$C$A$GT$13new_uninit_in17hf6fb1581bb656df0E+0x66>
    80202374:	a009                	j	80202376 <_ZN5alloc5boxed16Box$LT$T$C$A$GT$13new_uninit_in17hf6fb1581bb656df0E+0x56>
    80202376:	fa843503          	ld	a0,-88(s0)
    8020237a:	fea43423          	sd	a0,-24(s0)
    8020237e:	70a6                	ld	ra,104(sp)
    80202380:	7406                	ld	s0,96(sp)
    80202382:	6165                	addi	sp,sp,112
    80202384:	8082                	ret
    80202386:	f9843503          	ld	a0,-104(s0)
    8020238a:	fa043583          	ld	a1,-96(s0)
    8020238e:	0002b097          	auipc	ra,0x2b
    80202392:	4f4080e7          	jalr	1268(ra) # 8022d882 <_ZN5alloc5alloc18handle_alloc_error17h3beb0aac80b0ce78E>
	...

0000000080202398 <_ZN5alloc5boxed16Box$LT$T$C$A$GT$17try_new_uninit_in17h1a280183046ad79eE>:
    80202398:	7129                	addi	sp,sp,-320
    8020239a:	fe06                	sd	ra,312(sp)
    8020239c:	fa22                	sd	s0,304(sp)
    8020239e:	0280                	addi	s0,sp,320
    802023a0:	00014097          	auipc	ra,0x14
    802023a4:	20a080e7          	jalr	522(ra) # 802165aa <_ZN4core5alloc6layout10size_align17h8d2ec4b48fea102aE>
    802023a8:	eca43023          	sd	a0,-320(s0)
    802023ac:	852e                	mv	a0,a1
    802023ae:	ec043583          	ld	a1,-320(s0)
    802023b2:	f4b43c23          	sd	a1,-168(s0)
    802023b6:	f6a43023          	sd	a0,-160(s0)
    802023ba:	f6b43423          	sd	a1,-152(s0)
    802023be:	f6a43823          	sd	a0,-144(s0)
    802023c2:	f6a43c23          	sd	a0,-136(s0)
    802023c6:	f8a43023          	sd	a0,-128(s0)
    802023ca:	f8043503          	ld	a0,-128(s0)
    802023ce:	ecb43c23          	sd	a1,-296(s0)
    802023d2:	eea43023          	sd	a0,-288(s0)
    802023d6:	ed843583          	ld	a1,-296(s0)
    802023da:	ee043603          	ld	a2,-288(s0)
    802023de:	ec840513          	addi	a0,s0,-312
    802023e2:	00015097          	auipc	ra,0x15
    802023e6:	43c080e7          	jalr	1084(ra) # 8021781e <_ZN63_$LT$alloc..alloc..Global$u20$as$u20$core..alloc..Allocator$GT$8allocate17hef63cc0a1f83b96eE>
    802023ea:	f0b43423          	sd	a1,-248(s0)
    802023ee:	f0a43023          	sd	a0,-256(s0)
    802023f2:	f0043503          	ld	a0,-256(s0)
    802023f6:	4581                	li	a1,0
    802023f8:	02b50063          	beq	a0,a1,80202418 <_ZN5alloc5boxed16Box$LT$T$C$A$GT$17try_new_uninit_in17h1a280183046ad79eE+0x80>
    802023fc:	a009                	j	802023fe <_ZN5alloc5boxed16Box$LT$T$C$A$GT$17try_new_uninit_in17h1a280183046ad79eE+0x66>
    802023fe:	f0043583          	ld	a1,-256(s0)
    80202402:	f0843503          	ld	a0,-248(s0)
    80202406:	f8b43423          	sd	a1,-120(s0)
    8020240a:	f8a43823          	sd	a0,-112(s0)
    8020240e:	eeb43823          	sd	a1,-272(s0)
    80202412:	eea43c23          	sd	a0,-264(s0)
    80202416:	a029                	j	80202420 <_ZN5alloc5boxed16Box$LT$T$C$A$GT$17try_new_uninit_in17h1a280183046ad79eE+0x88>
    80202418:	4501                	li	a0,0
    8020241a:	eea43823          	sd	a0,-272(s0)
    8020241e:	a009                	j	80202420 <_ZN5alloc5boxed16Box$LT$T$C$A$GT$17try_new_uninit_in17h1a280183046ad79eE+0x88>
    80202420:	ef043503          	ld	a0,-272(s0)
    80202424:	4581                	li	a1,0
    80202426:	06b50063          	beq	a0,a1,80202486 <_ZN5alloc5boxed16Box$LT$T$C$A$GT$17try_new_uninit_in17h1a280183046ad79eE+0xee>
    8020242a:	a009                	j	8020242c <_ZN5alloc5boxed16Box$LT$T$C$A$GT$17try_new_uninit_in17h1a280183046ad79eE+0x94>
    8020242c:	ef043503          	ld	a0,-272(s0)
    80202430:	ef843583          	ld	a1,-264(s0)
    80202434:	f8a43c23          	sd	a0,-104(s0)
    80202438:	fab43023          	sd	a1,-96(s0)
    8020243c:	faa43423          	sd	a0,-88(s0)
    80202440:	fab43823          	sd	a1,-80(s0)
    80202444:	faa43c23          	sd	a0,-72(s0)
    80202448:	fcb43023          	sd	a1,-64(s0)
    8020244c:	fca43423          	sd	a0,-56(s0)
    80202450:	eea43423          	sd	a0,-280(s0)
    80202454:	ee843503          	ld	a0,-280(s0)
    80202458:	fca43823          	sd	a0,-48(s0)
    8020245c:	fca43c23          	sd	a0,-40(s0)
    80202460:	fea43023          	sd	a0,-32(s0)
    80202464:	fea43423          	sd	a0,-24(s0)
    80202468:	f2a43023          	sd	a0,-224(s0)
    8020246c:	f2043503          	ld	a0,-224(s0)
    80202470:	f0a43c23          	sd	a0,-232(s0)
    80202474:	f1843503          	ld	a0,-232(s0)
    80202478:	f0a43823          	sd	a0,-240(s0)
    8020247c:	f1043503          	ld	a0,-240(s0)
    80202480:	eca43823          	sd	a0,-304(s0)
    80202484:	a029                	j	8020248e <_ZN5alloc5boxed16Box$LT$T$C$A$GT$17try_new_uninit_in17h1a280183046ad79eE+0xf6>
    80202486:	4501                	li	a0,0
    80202488:	eca43823          	sd	a0,-304(s0)
    8020248c:	a009                	j	8020248e <_ZN5alloc5boxed16Box$LT$T$C$A$GT$17try_new_uninit_in17h1a280183046ad79eE+0xf6>
    8020248e:	ed043503          	ld	a0,-304(s0)
    80202492:	70f2                	ld	ra,312(sp)
    80202494:	7452                	ld	s0,304(sp)
    80202496:	6131                	addi	sp,sp,320
    80202498:	8082                	ret

000000008020249a <_ZN5alloc5boxed16Box$LT$T$C$A$GT$17try_new_uninit_in17h3de7ba7e931c10a8E>:
    8020249a:	7129                	addi	sp,sp,-320
    8020249c:	fe06                	sd	ra,312(sp)
    8020249e:	fa22                	sd	s0,304(sp)
    802024a0:	0280                	addi	s0,sp,320
    802024a2:	00014097          	auipc	ra,0x14
    802024a6:	04a080e7          	jalr	74(ra) # 802164ec <_ZN4core5alloc6layout10size_align17h189e56c2bcfe83bcE>
    802024aa:	eca43023          	sd	a0,-320(s0)
    802024ae:	852e                	mv	a0,a1
    802024b0:	ec043583          	ld	a1,-320(s0)
    802024b4:	f4b43c23          	sd	a1,-168(s0)
    802024b8:	f6a43023          	sd	a0,-160(s0)
    802024bc:	f6b43423          	sd	a1,-152(s0)
    802024c0:	f6a43823          	sd	a0,-144(s0)
    802024c4:	f6a43c23          	sd	a0,-136(s0)
    802024c8:	f8a43023          	sd	a0,-128(s0)
    802024cc:	f8043503          	ld	a0,-128(s0)
    802024d0:	ecb43c23          	sd	a1,-296(s0)
    802024d4:	eea43023          	sd	a0,-288(s0)
    802024d8:	ed843583          	ld	a1,-296(s0)
    802024dc:	ee043603          	ld	a2,-288(s0)
    802024e0:	ec840513          	addi	a0,s0,-312
    802024e4:	00015097          	auipc	ra,0x15
    802024e8:	33a080e7          	jalr	826(ra) # 8021781e <_ZN63_$LT$alloc..alloc..Global$u20$as$u20$core..alloc..Allocator$GT$8allocate17hef63cc0a1f83b96eE>
    802024ec:	f0b43423          	sd	a1,-248(s0)
    802024f0:	f0a43023          	sd	a0,-256(s0)
    802024f4:	f0043503          	ld	a0,-256(s0)
    802024f8:	4581                	li	a1,0
    802024fa:	02b50063          	beq	a0,a1,8020251a <_ZN5alloc5boxed16Box$LT$T$C$A$GT$17try_new_uninit_in17h3de7ba7e931c10a8E+0x80>
    802024fe:	a009                	j	80202500 <_ZN5alloc5boxed16Box$LT$T$C$A$GT$17try_new_uninit_in17h3de7ba7e931c10a8E+0x66>
    80202500:	f0043583          	ld	a1,-256(s0)
    80202504:	f0843503          	ld	a0,-248(s0)
    80202508:	f8b43423          	sd	a1,-120(s0)
    8020250c:	f8a43823          	sd	a0,-112(s0)
    80202510:	eeb43823          	sd	a1,-272(s0)
    80202514:	eea43c23          	sd	a0,-264(s0)
    80202518:	a029                	j	80202522 <_ZN5alloc5boxed16Box$LT$T$C$A$GT$17try_new_uninit_in17h3de7ba7e931c10a8E+0x88>
    8020251a:	4501                	li	a0,0
    8020251c:	eea43823          	sd	a0,-272(s0)
    80202520:	a009                	j	80202522 <_ZN5alloc5boxed16Box$LT$T$C$A$GT$17try_new_uninit_in17h3de7ba7e931c10a8E+0x88>
    80202522:	ef043503          	ld	a0,-272(s0)
    80202526:	4581                	li	a1,0
    80202528:	06b50063          	beq	a0,a1,80202588 <_ZN5alloc5boxed16Box$LT$T$C$A$GT$17try_new_uninit_in17h3de7ba7e931c10a8E+0xee>
    8020252c:	a009                	j	8020252e <_ZN5alloc5boxed16Box$LT$T$C$A$GT$17try_new_uninit_in17h3de7ba7e931c10a8E+0x94>
    8020252e:	ef043503          	ld	a0,-272(s0)
    80202532:	ef843583          	ld	a1,-264(s0)
    80202536:	f8a43c23          	sd	a0,-104(s0)
    8020253a:	fab43023          	sd	a1,-96(s0)
    8020253e:	faa43423          	sd	a0,-88(s0)
    80202542:	fab43823          	sd	a1,-80(s0)
    80202546:	faa43c23          	sd	a0,-72(s0)
    8020254a:	fcb43023          	sd	a1,-64(s0)
    8020254e:	fca43423          	sd	a0,-56(s0)
    80202552:	eea43423          	sd	a0,-280(s0)
    80202556:	ee843503          	ld	a0,-280(s0)
    8020255a:	fca43823          	sd	a0,-48(s0)
    8020255e:	fca43c23          	sd	a0,-40(s0)
    80202562:	fea43023          	sd	a0,-32(s0)
    80202566:	fea43423          	sd	a0,-24(s0)
    8020256a:	f2a43023          	sd	a0,-224(s0)
    8020256e:	f2043503          	ld	a0,-224(s0)
    80202572:	f0a43c23          	sd	a0,-232(s0)
    80202576:	f1843503          	ld	a0,-232(s0)
    8020257a:	f0a43823          	sd	a0,-240(s0)
    8020257e:	f1043503          	ld	a0,-240(s0)
    80202582:	eca43823          	sd	a0,-304(s0)
    80202586:	a029                	j	80202590 <_ZN5alloc5boxed16Box$LT$T$C$A$GT$17try_new_uninit_in17h3de7ba7e931c10a8E+0xf6>
    80202588:	4501                	li	a0,0
    8020258a:	eca43823          	sd	a0,-304(s0)
    8020258e:	a009                	j	80202590 <_ZN5alloc5boxed16Box$LT$T$C$A$GT$17try_new_uninit_in17h3de7ba7e931c10a8E+0xf6>
    80202590:	ed043503          	ld	a0,-304(s0)
    80202594:	70f2                	ld	ra,312(sp)
    80202596:	7452                	ld	s0,304(sp)
    80202598:	6131                	addi	sp,sp,320
    8020259a:	8082                	ret

000000008020259c <_ZN5alloc5boxed16Box$LT$T$C$A$GT$17try_new_uninit_in17h747568f352e33427E>:
    8020259c:	7129                	addi	sp,sp,-320
    8020259e:	fe06                	sd	ra,312(sp)
    802025a0:	fa22                	sd	s0,304(sp)
    802025a2:	0280                	addi	s0,sp,320
    802025a4:	00014097          	auipc	ra,0x14
    802025a8:	fba080e7          	jalr	-70(ra) # 8021655e <_ZN4core5alloc6layout10size_align17h550890bb8ed55899E>
    802025ac:	eca43023          	sd	a0,-320(s0)
    802025b0:	852e                	mv	a0,a1
    802025b2:	ec043583          	ld	a1,-320(s0)
    802025b6:	f4b43c23          	sd	a1,-168(s0)
    802025ba:	f6a43023          	sd	a0,-160(s0)
    802025be:	f6b43423          	sd	a1,-152(s0)
    802025c2:	f6a43823          	sd	a0,-144(s0)
    802025c6:	f6a43c23          	sd	a0,-136(s0)
    802025ca:	f8a43023          	sd	a0,-128(s0)
    802025ce:	f8043503          	ld	a0,-128(s0)
    802025d2:	ecb43c23          	sd	a1,-296(s0)
    802025d6:	eea43023          	sd	a0,-288(s0)
    802025da:	ed843583          	ld	a1,-296(s0)
    802025de:	ee043603          	ld	a2,-288(s0)
    802025e2:	ec840513          	addi	a0,s0,-312
    802025e6:	00015097          	auipc	ra,0x15
    802025ea:	238080e7          	jalr	568(ra) # 8021781e <_ZN63_$LT$alloc..alloc..Global$u20$as$u20$core..alloc..Allocator$GT$8allocate17hef63cc0a1f83b96eE>
    802025ee:	f0b43423          	sd	a1,-248(s0)
    802025f2:	f0a43023          	sd	a0,-256(s0)
    802025f6:	f0043503          	ld	a0,-256(s0)
    802025fa:	4581                	li	a1,0
    802025fc:	02b50063          	beq	a0,a1,8020261c <_ZN5alloc5boxed16Box$LT$T$C$A$GT$17try_new_uninit_in17h747568f352e33427E+0x80>
    80202600:	a009                	j	80202602 <_ZN5alloc5boxed16Box$LT$T$C$A$GT$17try_new_uninit_in17h747568f352e33427E+0x66>
    80202602:	f0043583          	ld	a1,-256(s0)
    80202606:	f0843503          	ld	a0,-248(s0)
    8020260a:	f8b43423          	sd	a1,-120(s0)
    8020260e:	f8a43823          	sd	a0,-112(s0)
    80202612:	eeb43823          	sd	a1,-272(s0)
    80202616:	eea43c23          	sd	a0,-264(s0)
    8020261a:	a029                	j	80202624 <_ZN5alloc5boxed16Box$LT$T$C$A$GT$17try_new_uninit_in17h747568f352e33427E+0x88>
    8020261c:	4501                	li	a0,0
    8020261e:	eea43823          	sd	a0,-272(s0)
    80202622:	a009                	j	80202624 <_ZN5alloc5boxed16Box$LT$T$C$A$GT$17try_new_uninit_in17h747568f352e33427E+0x88>
    80202624:	ef043503          	ld	a0,-272(s0)
    80202628:	4581                	li	a1,0
    8020262a:	06b50063          	beq	a0,a1,8020268a <_ZN5alloc5boxed16Box$LT$T$C$A$GT$17try_new_uninit_in17h747568f352e33427E+0xee>
    8020262e:	a009                	j	80202630 <_ZN5alloc5boxed16Box$LT$T$C$A$GT$17try_new_uninit_in17h747568f352e33427E+0x94>
    80202630:	ef043503          	ld	a0,-272(s0)
    80202634:	ef843583          	ld	a1,-264(s0)
    80202638:	f8a43c23          	sd	a0,-104(s0)
    8020263c:	fab43023          	sd	a1,-96(s0)
    80202640:	faa43423          	sd	a0,-88(s0)
    80202644:	fab43823          	sd	a1,-80(s0)
    80202648:	faa43c23          	sd	a0,-72(s0)
    8020264c:	fcb43023          	sd	a1,-64(s0)
    80202650:	fca43423          	sd	a0,-56(s0)
    80202654:	eea43423          	sd	a0,-280(s0)
    80202658:	ee843503          	ld	a0,-280(s0)
    8020265c:	fca43823          	sd	a0,-48(s0)
    80202660:	fca43c23          	sd	a0,-40(s0)
    80202664:	fea43023          	sd	a0,-32(s0)
    80202668:	fea43423          	sd	a0,-24(s0)
    8020266c:	f2a43023          	sd	a0,-224(s0)
    80202670:	f2043503          	ld	a0,-224(s0)
    80202674:	f0a43c23          	sd	a0,-232(s0)
    80202678:	f1843503          	ld	a0,-232(s0)
    8020267c:	f0a43823          	sd	a0,-240(s0)
    80202680:	f1043503          	ld	a0,-240(s0)
    80202684:	eca43823          	sd	a0,-304(s0)
    80202688:	a029                	j	80202692 <_ZN5alloc5boxed16Box$LT$T$C$A$GT$17try_new_uninit_in17h747568f352e33427E+0xf6>
    8020268a:	4501                	li	a0,0
    8020268c:	eca43823          	sd	a0,-304(s0)
    80202690:	a009                	j	80202692 <_ZN5alloc5boxed16Box$LT$T$C$A$GT$17try_new_uninit_in17h747568f352e33427E+0xf6>
    80202692:	ed043503          	ld	a0,-304(s0)
    80202696:	70f2                	ld	ra,312(sp)
    80202698:	7452                	ld	s0,304(sp)
    8020269a:	6131                	addi	sp,sp,320
    8020269c:	8082                	ret

000000008020269e <_ZN5alloc5boxed16Box$LT$T$C$A$GT$17try_new_uninit_in17h7d77a280840d8b23E>:
    8020269e:	7129                	addi	sp,sp,-320
    802026a0:	fe06                	sd	ra,312(sp)
    802026a2:	fa22                	sd	s0,304(sp)
    802026a4:	0280                	addi	s0,sp,320
    802026a6:	00014097          	auipc	ra,0x14
    802026aa:	e6c080e7          	jalr	-404(ra) # 80216512 <_ZN4core5alloc6layout10size_align17h2f7f0e011e16c5b9E>
    802026ae:	eca43023          	sd	a0,-320(s0)
    802026b2:	852e                	mv	a0,a1
    802026b4:	ec043583          	ld	a1,-320(s0)
    802026b8:	f4b43c23          	sd	a1,-168(s0)
    802026bc:	f6a43023          	sd	a0,-160(s0)
    802026c0:	f6b43423          	sd	a1,-152(s0)
    802026c4:	f6a43823          	sd	a0,-144(s0)
    802026c8:	f6a43c23          	sd	a0,-136(s0)
    802026cc:	f8a43023          	sd	a0,-128(s0)
    802026d0:	f8043503          	ld	a0,-128(s0)
    802026d4:	ecb43c23          	sd	a1,-296(s0)
    802026d8:	eea43023          	sd	a0,-288(s0)
    802026dc:	ed843583          	ld	a1,-296(s0)
    802026e0:	ee043603          	ld	a2,-288(s0)
    802026e4:	ec840513          	addi	a0,s0,-312
    802026e8:	00015097          	auipc	ra,0x15
    802026ec:	136080e7          	jalr	310(ra) # 8021781e <_ZN63_$LT$alloc..alloc..Global$u20$as$u20$core..alloc..Allocator$GT$8allocate17hef63cc0a1f83b96eE>
    802026f0:	f0b43423          	sd	a1,-248(s0)
    802026f4:	f0a43023          	sd	a0,-256(s0)
    802026f8:	f0043503          	ld	a0,-256(s0)
    802026fc:	4581                	li	a1,0
    802026fe:	02b50063          	beq	a0,a1,8020271e <_ZN5alloc5boxed16Box$LT$T$C$A$GT$17try_new_uninit_in17h7d77a280840d8b23E+0x80>
    80202702:	a009                	j	80202704 <_ZN5alloc5boxed16Box$LT$T$C$A$GT$17try_new_uninit_in17h7d77a280840d8b23E+0x66>
    80202704:	f0043583          	ld	a1,-256(s0)
    80202708:	f0843503          	ld	a0,-248(s0)
    8020270c:	f8b43423          	sd	a1,-120(s0)
    80202710:	f8a43823          	sd	a0,-112(s0)
    80202714:	eeb43823          	sd	a1,-272(s0)
    80202718:	eea43c23          	sd	a0,-264(s0)
    8020271c:	a029                	j	80202726 <_ZN5alloc5boxed16Box$LT$T$C$A$GT$17try_new_uninit_in17h7d77a280840d8b23E+0x88>
    8020271e:	4501                	li	a0,0
    80202720:	eea43823          	sd	a0,-272(s0)
    80202724:	a009                	j	80202726 <_ZN5alloc5boxed16Box$LT$T$C$A$GT$17try_new_uninit_in17h7d77a280840d8b23E+0x88>
    80202726:	ef043503          	ld	a0,-272(s0)
    8020272a:	4581                	li	a1,0
    8020272c:	06b50063          	beq	a0,a1,8020278c <_ZN5alloc5boxed16Box$LT$T$C$A$GT$17try_new_uninit_in17h7d77a280840d8b23E+0xee>
    80202730:	a009                	j	80202732 <_ZN5alloc5boxed16Box$LT$T$C$A$GT$17try_new_uninit_in17h7d77a280840d8b23E+0x94>
    80202732:	ef043503          	ld	a0,-272(s0)
    80202736:	ef843583          	ld	a1,-264(s0)
    8020273a:	f8a43c23          	sd	a0,-104(s0)
    8020273e:	fab43023          	sd	a1,-96(s0)
    80202742:	faa43423          	sd	a0,-88(s0)
    80202746:	fab43823          	sd	a1,-80(s0)
    8020274a:	faa43c23          	sd	a0,-72(s0)
    8020274e:	fcb43023          	sd	a1,-64(s0)
    80202752:	fca43423          	sd	a0,-56(s0)
    80202756:	eea43423          	sd	a0,-280(s0)
    8020275a:	ee843503          	ld	a0,-280(s0)
    8020275e:	fca43823          	sd	a0,-48(s0)
    80202762:	fca43c23          	sd	a0,-40(s0)
    80202766:	fea43023          	sd	a0,-32(s0)
    8020276a:	fea43423          	sd	a0,-24(s0)
    8020276e:	f2a43023          	sd	a0,-224(s0)
    80202772:	f2043503          	ld	a0,-224(s0)
    80202776:	f0a43c23          	sd	a0,-232(s0)
    8020277a:	f1843503          	ld	a0,-232(s0)
    8020277e:	f0a43823          	sd	a0,-240(s0)
    80202782:	f1043503          	ld	a0,-240(s0)
    80202786:	eca43823          	sd	a0,-304(s0)
    8020278a:	a029                	j	80202794 <_ZN5alloc5boxed16Box$LT$T$C$A$GT$17try_new_uninit_in17h7d77a280840d8b23E+0xf6>
    8020278c:	4501                	li	a0,0
    8020278e:	eca43823          	sd	a0,-304(s0)
    80202792:	a009                	j	80202794 <_ZN5alloc5boxed16Box$LT$T$C$A$GT$17try_new_uninit_in17h7d77a280840d8b23E+0xf6>
    80202794:	ed043503          	ld	a0,-304(s0)
    80202798:	70f2                	ld	ra,312(sp)
    8020279a:	7452                	ld	s0,304(sp)
    8020279c:	6131                	addi	sp,sp,320
    8020279e:	8082                	ret

00000000802027a0 <_ZN5alloc5boxed16Box$LT$T$C$A$GT$23into_raw_with_allocator17hf677caeab45d5796E>:
    802027a0:	7159                	addi	sp,sp,-112
    802027a2:	f486                	sd	ra,104(sp)
    802027a4:	f0a2                	sd	s0,96(sp)
    802027a6:	1880                	addi	s0,sp,112
    802027a8:	faa43423          	sd	a0,-88(s0)
    802027ac:	fab43823          	sd	a1,-80(s0)
    802027b0:	00000097          	auipc	ra,0x0
    802027b4:	8a0080e7          	jalr	-1888(ra) # 80202050 <_ZN5alloc5boxed16Box$LT$T$C$A$GT$11into_unique17h117690aab14f2898E>
    802027b8:	fca43023          	sd	a0,-64(s0)
    802027bc:	fcb43423          	sd	a1,-56(s0)
    802027c0:	fca43823          	sd	a0,-48(s0)
    802027c4:	fcb43c23          	sd	a1,-40(s0)
    802027c8:	fea43023          	sd	a0,-32(s0)
    802027cc:	feb43423          	sd	a1,-24(s0)
    802027d0:	f8a43c23          	sd	a0,-104(s0)
    802027d4:	fab43023          	sd	a1,-96(s0)
    802027d8:	f9843503          	ld	a0,-104(s0)
    802027dc:	fa043583          	ld	a1,-96(s0)
    802027e0:	70a6                	ld	ra,104(sp)
    802027e2:	7406                	ld	s0,96(sp)
    802027e4:	6165                	addi	sp,sp,112
    802027e6:	8082                	ret

00000000802027e8 <_ZN5alloc5boxed16Box$LT$T$C$A$GT$4leak17h1c98d2afbb72a59eE>:
    802027e8:	7139                	addi	sp,sp,-64
    802027ea:	fc06                	sd	ra,56(sp)
    802027ec:	f822                	sd	s0,48(sp)
    802027ee:	0080                	addi	s0,sp,64
    802027f0:	fca43423          	sd	a0,-56(s0)
    802027f4:	fca43823          	sd	a0,-48(s0)
    802027f8:	fca43023          	sd	a0,-64(s0)
    802027fc:	fc040513          	addi	a0,s0,-64
    80202800:	fca43c23          	sd	a0,-40(s0)
    80202804:	fc043503          	ld	a0,-64(s0)
    80202808:	fea43023          	sd	a0,-32(s0)
    8020280c:	fea43423          	sd	a0,-24(s0)
    80202810:	70e2                	ld	ra,56(sp)
    80202812:	7442                	ld	s0,48(sp)
    80202814:	6121                	addi	sp,sp,64
    80202816:	8082                	ret

0000000080202818 <_ZN5alloc5boxed16Box$LT$T$C$A$GT$4leak17h31ade4505e0e8651E>:
    80202818:	7139                	addi	sp,sp,-64
    8020281a:	fc06                	sd	ra,56(sp)
    8020281c:	f822                	sd	s0,48(sp)
    8020281e:	0080                	addi	s0,sp,64
    80202820:	fca43423          	sd	a0,-56(s0)
    80202824:	fca43823          	sd	a0,-48(s0)
    80202828:	fca43023          	sd	a0,-64(s0)
    8020282c:	fc040513          	addi	a0,s0,-64
    80202830:	fca43c23          	sd	a0,-40(s0)
    80202834:	fc043503          	ld	a0,-64(s0)
    80202838:	fea43023          	sd	a0,-32(s0)
    8020283c:	fea43423          	sd	a0,-24(s0)
    80202840:	70e2                	ld	ra,56(sp)
    80202842:	7442                	ld	s0,48(sp)
    80202844:	6121                	addi	sp,sp,64
    80202846:	8082                	ret

0000000080202848 <_ZN5alloc5boxed16Box$LT$T$C$A$GT$4leak17h8169ce6f74d91c77E>:
    80202848:	7139                	addi	sp,sp,-64
    8020284a:	fc06                	sd	ra,56(sp)
    8020284c:	f822                	sd	s0,48(sp)
    8020284e:	0080                	addi	s0,sp,64
    80202850:	fca43423          	sd	a0,-56(s0)
    80202854:	fca43823          	sd	a0,-48(s0)
    80202858:	fca43023          	sd	a0,-64(s0)
    8020285c:	fc040513          	addi	a0,s0,-64
    80202860:	fca43c23          	sd	a0,-40(s0)
    80202864:	fc043503          	ld	a0,-64(s0)
    80202868:	fea43023          	sd	a0,-32(s0)
    8020286c:	fea43423          	sd	a0,-24(s0)
    80202870:	70e2                	ld	ra,56(sp)
    80202872:	7442                	ld	s0,48(sp)
    80202874:	6121                	addi	sp,sp,64
    80202876:	8082                	ret

0000000080202878 <_ZN5alloc5boxed16Box$LT$T$C$A$GT$4leak17hbc66134ada7142aeE>:
    80202878:	7159                	addi	sp,sp,-112
    8020287a:	f486                	sd	ra,104(sp)
    8020287c:	f0a2                	sd	s0,96(sp)
    8020287e:	1880                	addi	s0,sp,112
    80202880:	faa43423          	sd	a0,-88(s0)
    80202884:	fab43823          	sd	a1,-80(s0)
    80202888:	faa43c23          	sd	a0,-72(s0)
    8020288c:	fcb43023          	sd	a1,-64(s0)
    80202890:	f8a43c23          	sd	a0,-104(s0)
    80202894:	fab43023          	sd	a1,-96(s0)
    80202898:	f9840513          	addi	a0,s0,-104
    8020289c:	fca43423          	sd	a0,-56(s0)
    802028a0:	f9843503          	ld	a0,-104(s0)
    802028a4:	fa043583          	ld	a1,-96(s0)
    802028a8:	fca43823          	sd	a0,-48(s0)
    802028ac:	fcb43c23          	sd	a1,-40(s0)
    802028b0:	fea43023          	sd	a0,-32(s0)
    802028b4:	feb43423          	sd	a1,-24(s0)
    802028b8:	70a6                	ld	ra,104(sp)
    802028ba:	7406                	ld	s0,96(sp)
    802028bc:	6165                	addi	sp,sp,112
    802028be:	8082                	ret

00000000802028c0 <_ZN5alloc5boxed16Box$LT$T$C$A$GT$4leak17hbf31e7f5fe2942c5E>:
    802028c0:	7139                	addi	sp,sp,-64
    802028c2:	fc06                	sd	ra,56(sp)
    802028c4:	f822                	sd	s0,48(sp)
    802028c6:	0080                	addi	s0,sp,64
    802028c8:	fca43423          	sd	a0,-56(s0)
    802028cc:	fca43823          	sd	a0,-48(s0)
    802028d0:	fca43023          	sd	a0,-64(s0)
    802028d4:	fc040513          	addi	a0,s0,-64
    802028d8:	fca43c23          	sd	a0,-40(s0)
    802028dc:	fc043503          	ld	a0,-64(s0)
    802028e0:	fea43023          	sd	a0,-32(s0)
    802028e4:	fea43423          	sd	a0,-24(s0)
    802028e8:	70e2                	ld	ra,56(sp)
    802028ea:	7442                	ld	s0,48(sp)
    802028ec:	6121                	addi	sp,sp,64
    802028ee:	8082                	ret

00000000802028f0 <_ZN5alloc5boxed60Box$LT$core..mem..maybe_uninit..MaybeUninit$LT$T$GT$$C$A$GT$11assume_init17h2b083729020a0e90E>:
    802028f0:	7175                	addi	sp,sp,-144
    802028f2:	e506                	sd	ra,136(sp)
    802028f4:	e122                	sd	s0,128(sp)
    802028f6:	0900                	addi	s0,sp,144
    802028f8:	f8a43823          	sd	a0,-112(s0)
    802028fc:	faa43823          	sd	a0,-80(s0)
    80202900:	00000097          	auipc	ra,0x0
    80202904:	818080e7          	jalr	-2024(ra) # 80202118 <_ZN5alloc5boxed16Box$LT$T$C$A$GT$11into_unique17h93dfb6337046f8abE>
    80202908:	faa43c23          	sd	a0,-72(s0)
    8020290c:	fca43023          	sd	a0,-64(s0)
    80202910:	fca43423          	sd	a0,-56(s0)
    80202914:	f6a43c23          	sd	a0,-136(s0)
    80202918:	f7843503          	ld	a0,-136(s0)
    8020291c:	fca43823          	sd	a0,-48(s0)
    80202920:	fca43c23          	sd	a0,-40(s0)
    80202924:	fea43023          	sd	a0,-32(s0)
    80202928:	fea43423          	sd	a0,-24(s0)
    8020292c:	f8a43423          	sd	a0,-120(s0)
    80202930:	f8843503          	ld	a0,-120(s0)
    80202934:	f8a43023          	sd	a0,-128(s0)
    80202938:	f8043503          	ld	a0,-128(s0)
    8020293c:	f6a43823          	sd	a0,-144(s0)
    80202940:	f7043503          	ld	a0,-144(s0)
    80202944:	60aa                	ld	ra,136(sp)
    80202946:	640a                	ld	s0,128(sp)
    80202948:	6149                	addi	sp,sp,144
    8020294a:	8082                	ret

000000008020294c <_ZN5alloc5boxed60Box$LT$core..mem..maybe_uninit..MaybeUninit$LT$T$GT$$C$A$GT$11assume_init17h3aea9238cfe46d7cE>:
    8020294c:	7175                	addi	sp,sp,-144
    8020294e:	e506                	sd	ra,136(sp)
    80202950:	e122                	sd	s0,128(sp)
    80202952:	0900                	addi	s0,sp,144
    80202954:	f8a43823          	sd	a0,-112(s0)
    80202958:	faa43823          	sd	a0,-80(s0)
    8020295c:	fffff097          	auipc	ra,0xfffff
    80202960:	76c080e7          	jalr	1900(ra) # 802020c8 <_ZN5alloc5boxed16Box$LT$T$C$A$GT$11into_unique17h159a28c6e21ae889E>
    80202964:	faa43c23          	sd	a0,-72(s0)
    80202968:	fca43023          	sd	a0,-64(s0)
    8020296c:	fca43423          	sd	a0,-56(s0)
    80202970:	f6a43c23          	sd	a0,-136(s0)
    80202974:	f7843503          	ld	a0,-136(s0)
    80202978:	fca43823          	sd	a0,-48(s0)
    8020297c:	fca43c23          	sd	a0,-40(s0)
    80202980:	fea43023          	sd	a0,-32(s0)
    80202984:	fea43423          	sd	a0,-24(s0)
    80202988:	f8a43423          	sd	a0,-120(s0)
    8020298c:	f8843503          	ld	a0,-120(s0)
    80202990:	f8a43023          	sd	a0,-128(s0)
    80202994:	f8043503          	ld	a0,-128(s0)
    80202998:	f6a43823          	sd	a0,-144(s0)
    8020299c:	f7043503          	ld	a0,-144(s0)
    802029a0:	60aa                	ld	ra,136(sp)
    802029a2:	640a                	ld	s0,128(sp)
    802029a4:	6149                	addi	sp,sp,144
    802029a6:	8082                	ret

00000000802029a8 <_ZN5alloc5boxed60Box$LT$core..mem..maybe_uninit..MaybeUninit$LT$T$GT$$C$A$GT$11assume_init17h8aa8fb16524bc7d1E>:
    802029a8:	7175                	addi	sp,sp,-144
    802029aa:	e506                	sd	ra,136(sp)
    802029ac:	e122                	sd	s0,128(sp)
    802029ae:	0900                	addi	s0,sp,144
    802029b0:	f8a43823          	sd	a0,-112(s0)
    802029b4:	faa43823          	sd	a0,-80(s0)
    802029b8:	fffff097          	auipc	ra,0xfffff
    802029bc:	7b0080e7          	jalr	1968(ra) # 80202168 <_ZN5alloc5boxed16Box$LT$T$C$A$GT$11into_unique17hfb9a4f542ef51ee5E>
    802029c0:	faa43c23          	sd	a0,-72(s0)
    802029c4:	fca43023          	sd	a0,-64(s0)
    802029c8:	fca43423          	sd	a0,-56(s0)
    802029cc:	f6a43c23          	sd	a0,-136(s0)
    802029d0:	f7843503          	ld	a0,-136(s0)
    802029d4:	fca43823          	sd	a0,-48(s0)
    802029d8:	fca43c23          	sd	a0,-40(s0)
    802029dc:	fea43023          	sd	a0,-32(s0)
    802029e0:	fea43423          	sd	a0,-24(s0)
    802029e4:	f8a43423          	sd	a0,-120(s0)
    802029e8:	f8843503          	ld	a0,-120(s0)
    802029ec:	f8a43023          	sd	a0,-128(s0)
    802029f0:	f8043503          	ld	a0,-128(s0)
    802029f4:	f6a43823          	sd	a0,-144(s0)
    802029f8:	f7043503          	ld	a0,-144(s0)
    802029fc:	60aa                	ld	ra,136(sp)
    802029fe:	640a                	ld	s0,128(sp)
    80202a00:	6149                	addi	sp,sp,144
    80202a02:	8082                	ret

0000000080202a04 <_ZN5alloc5boxed60Box$LT$core..mem..maybe_uninit..MaybeUninit$LT$T$GT$$C$A$GT$11assume_init17h9262a2a283d60f10E>:
    80202a04:	7175                	addi	sp,sp,-144
    80202a06:	e506                	sd	ra,136(sp)
    80202a08:	e122                	sd	s0,128(sp)
    80202a0a:	0900                	addi	s0,sp,144
    80202a0c:	f8a43823          	sd	a0,-112(s0)
    80202a10:	faa43823          	sd	a0,-80(s0)
    80202a14:	fffff097          	auipc	ra,0xfffff
    80202a18:	5ec080e7          	jalr	1516(ra) # 80202000 <_ZN5alloc5boxed16Box$LT$T$C$A$GT$11into_unique17h0eba5179d2f11f97E>
    80202a1c:	faa43c23          	sd	a0,-72(s0)
    80202a20:	fca43023          	sd	a0,-64(s0)
    80202a24:	fca43423          	sd	a0,-56(s0)
    80202a28:	f6a43c23          	sd	a0,-136(s0)
    80202a2c:	f7843503          	ld	a0,-136(s0)
    80202a30:	fca43823          	sd	a0,-48(s0)
    80202a34:	fca43c23          	sd	a0,-40(s0)
    80202a38:	fea43023          	sd	a0,-32(s0)
    80202a3c:	fea43423          	sd	a0,-24(s0)
    80202a40:	f8a43423          	sd	a0,-120(s0)
    80202a44:	f8843503          	ld	a0,-120(s0)
    80202a48:	f8a43023          	sd	a0,-128(s0)
    80202a4c:	f8043503          	ld	a0,-128(s0)
    80202a50:	f6a43823          	sd	a0,-144(s0)
    80202a54:	f7043503          	ld	a0,-144(s0)
    80202a58:	60aa                	ld	ra,136(sp)
    80202a5a:	640a                	ld	s0,128(sp)
    80202a5c:	6149                	addi	sp,sp,144
    80202a5e:	8082                	ret

0000000080202a60 <_ZN5riscv8register4sepc4read17h154d3c46c65f4423E>:
    80202a60:	1141                	addi	sp,sp,-16
    80202a62:	e406                	sd	ra,8(sp)
    80202a64:	e022                	sd	s0,0(sp)
    80202a66:	0800                	addi	s0,sp,16
    80202a68:	00000097          	auipc	ra,0x0
    80202a6c:	010080e7          	jalr	16(ra) # 80202a78 <_ZN5riscv8register4sepc5_read17h5d887a88ebf968f5E>
    80202a70:	60a2                	ld	ra,8(sp)
    80202a72:	6402                	ld	s0,0(sp)
    80202a74:	0141                	addi	sp,sp,16
    80202a76:	8082                	ret

0000000080202a78 <_ZN5riscv8register4sepc5_read17h5d887a88ebf968f5E>:
    80202a78:	1101                	addi	sp,sp,-32
    80202a7a:	ec06                	sd	ra,24(sp)
    80202a7c:	e822                	sd	s0,16(sp)
    80202a7e:	1000                	addi	s0,sp,32
    80202a80:	14102573          	csrr	a0,sepc
    80202a84:	fea43423          	sd	a0,-24(s0)
    80202a88:	fe843503          	ld	a0,-24(s0)
    80202a8c:	60e2                	ld	ra,24(sp)
    80202a8e:	6442                	ld	s0,16(sp)
    80202a90:	6105                	addi	sp,sp,32
    80202a92:	8082                	ret

0000000080202a94 <_ZN11hypocaust_25guest4pmap21two_stage_translation17hef1a34e3feb83563E>:
    80202a94:	7109                	addi	sp,sp,-384
    80202a96:	fe86                	sd	ra,376(sp)
    80202a98:	faa2                	sd	s0,368(sp)
    80202a9a:	0300                	addi	s0,sp,384
    80202a9c:	e8d43423          	sd	a3,-376(s0)
    80202aa0:	eab43823          	sd	a1,-336(s0)
    80202aa4:	eaa43423          	sd	a0,-344(s0)
    80202aa8:	ecc43023          	sd	a2,-320(s0)
    80202aac:	fca43423          	sd	a0,-56(s0)
    80202ab0:	fcb43823          	sd	a1,-48(s0)
    80202ab4:	fcd43c23          	sd	a3,-40(s0)
    80202ab8:	4501                	li	a0,0
    80202aba:	fca403a3          	sb	a0,-57(s0)
    80202abe:	ec043503          	ld	a0,-320(s0)
    80202ac2:	055a                	slli	a0,a0,0x16
    80202ac4:	8159                	srli	a0,a0,0x16
    80202ac6:	0532                	slli	a0,a0,0xc
    80202ac8:	eca43c23          	sd	a0,-296(s0)
    80202acc:	ed840513          	addi	a0,s0,-296
    80202ad0:	0001f097          	auipc	ra,0x1f
    80202ad4:	3de080e7          	jalr	990(ra) # 80221eae <_ZN4core3fmt10ArgumentV113new_lower_hex17hf99418483649d21eE>
    80202ad8:	e8a43823          	sd	a0,-368(s0)
    80202adc:	e8b43c23          	sd	a1,-360(s0)
    80202ae0:	ec040513          	addi	a0,s0,-320
    80202ae4:	0001f097          	auipc	ra,0x1f
    80202ae8:	3ca080e7          	jalr	970(ra) # 80221eae <_ZN4core3fmt10ArgumentV113new_lower_hex17hf99418483649d21eE>
    80202aec:	e9043683          	ld	a3,-368(s0)
    80202af0:	e9843603          	ld	a2,-360(s0)
    80202af4:	f0d43823          	sd	a3,-240(s0)
    80202af8:	f0c43c23          	sd	a2,-232(s0)
    80202afc:	f2a43023          	sd	a0,-224(s0)
    80202b00:	f2b43423          	sd	a1,-216(s0)

0000000080202b04 <.LBB0_10>:
    80202b04:	0002e597          	auipc	a1,0x2e
    80202b08:	52c58593          	addi	a1,a1,1324 # 80231030 <.L__unnamed_1>

0000000080202b0c <.LBB0_11>:
    80202b0c:	0002e797          	auipc	a5,0x2e
    80202b10:	55478793          	addi	a5,a5,1364 # 80231060 <.L__unnamed_2>
    80202b14:	ee040513          	addi	a0,s0,-288
    80202b18:	eaa43023          	sd	a0,-352(s0)
    80202b1c:	460d                	li	a2,3
    80202b1e:	eac43c23          	sd	a2,-328(s0)
    80202b22:	f1040693          	addi	a3,s0,-240
    80202b26:	4809                	li	a6,2
    80202b28:	8742                	mv	a4,a6
    80202b2a:	0001b097          	auipc	ra,0x1b
    80202b2e:	848080e7          	jalr	-1976(ra) # 8021d372 <_ZN4core3fmt9Arguments16new_v1_formatted17h6cadfd8de4951621E>
    80202b32:	ea043503          	ld	a0,-352(s0)
    80202b36:	00016097          	auipc	ra,0x16
    80202b3a:	0ae080e7          	jalr	174(ra) # 80218be4 <_ZN11hypocaust_27console5print17h5cc076bc52521905E>
    80202b3e:	ea843583          	ld	a1,-344(s0)
    80202b42:	eb043683          	ld	a3,-336(s0)
    80202b46:	ed843603          	ld	a2,-296(s0)
    80202b4a:	f3040513          	addi	a0,s0,-208
    80202b4e:	00002097          	auipc	ra,0x2
    80202b52:	5b4080e7          	jalr	1460(ra) # 80205102 <_ZN11hypocaust_210page_table18translate_guest_va17h6fe043bb42fed1f9E>
    80202b56:	eb843583          	ld	a1,-328(s0)
    80202b5a:	4505                	li	a0,1
    80202b5c:	fca403a3          	sb	a0,-57(s0)
    80202b60:	f6844503          	lbu	a0,-152(s0)
    80202b64:	06b50e63          	beq	a0,a1,80202be0 <.LBB0_11+0xd4>
    80202b68:	a009                	j	80202b6a <.LBB0_11+0x5e>
    80202b6a:	e8843503          	ld	a0,-376(s0)
    80202b6e:	4581                	li	a1,0
    80202b70:	e8b43023          	sd	a1,-384(s0)
    80202b74:	fcb403a3          	sb	a1,-57(s0)
    80202b78:	f6843583          	ld	a1,-152(s0)
    80202b7c:	fab43423          	sd	a1,-88(s0)
    80202b80:	f6043583          	ld	a1,-160(s0)
    80202b84:	fab43023          	sd	a1,-96(s0)
    80202b88:	f5843583          	ld	a1,-168(s0)
    80202b8c:	f8b43c23          	sd	a1,-104(s0)
    80202b90:	f5043583          	ld	a1,-176(s0)
    80202b94:	f8b43823          	sd	a1,-112(s0)
    80202b98:	f4843583          	ld	a1,-184(s0)
    80202b9c:	f8b43423          	sd	a1,-120(s0)
    80202ba0:	f4043583          	ld	a1,-192(s0)
    80202ba4:	f8b43023          	sd	a1,-128(s0)
    80202ba8:	f3843583          	ld	a1,-200(s0)
    80202bac:	f6b43c23          	sd	a1,-136(s0)
    80202bb0:	f3043583          	ld	a1,-208(s0)
    80202bb4:	f6b43823          	sd	a1,-144(s0)
    80202bb8:	fa043583          	ld	a1,-96(s0)
    80202bbc:	feb43023          	sd	a1,-32(s0)
    80202bc0:	0000c097          	auipc	ra,0xc
    80202bc4:	8a8080e7          	jalr	-1880(ra) # 8020e468 <_ZN11hypocaust_22mm10memory_set18MemorySet$LT$P$GT$12translate_va17h0ecd1a64493e2106E>
    80202bc8:	862e                	mv	a2,a1
    80202bca:	e8043583          	ld	a1,-384(s0)
    80202bce:	fac43c23          	sd	a2,-72(s0)
    80202bd2:	faa43823          	sd	a0,-80(s0)
    80202bd6:	fb043503          	ld	a0,-80(s0)
    80202bda:	00b51d63          	bne	a0,a1,80202bf4 <.LBB0_11+0xe8>
    80202bde:	a835                	j	80202c1a <.LBB0_11+0x10e>
    80202be0:	4501                	li	a0,0
    80202be2:	eca43423          	sd	a0,-312(s0)
    80202be6:	a009                	j	80202be8 <.LBB0_11+0xdc>
    80202be8:	f6844503          	lbu	a0,-152(s0)
    80202bec:	458d                	li	a1,3
    80202bee:	04b51063          	bne	a0,a1,80202c2e <.LBB0_11+0x122>
    80202bf2:	a0a9                	j	80202c3c <.LBB0_11+0x130>
    80202bf4:	fb843503          	ld	a0,-72(s0)
    80202bf8:	fea43423          	sd	a0,-24(s0)
    80202bfc:	eca43823          	sd	a0,-304(s0)
    80202c00:	4505                	li	a0,1
    80202c02:	eca43423          	sd	a0,-312(s0)
    80202c06:	f7040513          	addi	a0,s0,-144
    80202c0a:	00018097          	auipc	ra,0x18
    80202c0e:	976080e7          	jalr	-1674(ra) # 8021a580 <_ZN4core3ptr64drop_in_place$LT$hypocaust_2..page_table..AddressTranslation$GT$17h2309a356948cea85E>
    80202c12:	4501                	li	a0,0
    80202c14:	fca403a3          	sb	a0,-57(s0)
    80202c18:	a82d                	j	80202c52 <.LBB0_11+0x146>
    80202c1a:	4501                	li	a0,0
    80202c1c:	eca43423          	sd	a0,-312(s0)
    80202c20:	f7040513          	addi	a0,s0,-144
    80202c24:	00018097          	auipc	ra,0x18
    80202c28:	95c080e7          	jalr	-1700(ra) # 8021a580 <_ZN4core3ptr64drop_in_place$LT$hypocaust_2..page_table..AddressTranslation$GT$17h2309a356948cea85E>
    80202c2c:	bf75                	j	80202be8 <.LBB0_11+0xdc>
    80202c2e:	fc744503          	lbu	a0,-57(s0)
    80202c32:	8905                	andi	a0,a0,1
    80202c34:	4581                	li	a1,0
    80202c36:	00b51763          	bne	a0,a1,80202c44 <.LBB0_11+0x138>
    80202c3a:	a009                	j	80202c3c <.LBB0_11+0x130>
    80202c3c:	4501                	li	a0,0
    80202c3e:	fca403a3          	sb	a0,-57(s0)
    80202c42:	a801                	j	80202c52 <.LBB0_11+0x146>
    80202c44:	f3040513          	addi	a0,s0,-208
    80202c48:	00018097          	auipc	ra,0x18
    80202c4c:	938080e7          	jalr	-1736(ra) # 8021a580 <_ZN4core3ptr64drop_in_place$LT$hypocaust_2..page_table..AddressTranslation$GT$17h2309a356948cea85E>
    80202c50:	b7f5                	j	80202c3c <.LBB0_11+0x130>
    80202c52:	ec843503          	ld	a0,-312(s0)
    80202c56:	ed043583          	ld	a1,-304(s0)
    80202c5a:	70f6                	ld	ra,376(sp)
    80202c5c:	7456                	ld	s0,368(sp)
    80202c5e:	6119                	addi	sp,sp,384
    80202c60:	8082                	ret

0000000080202c62 <_ZN5alloc3vec12Vec$LT$T$GT$3new17h780392aca4e0b12fE>:
    80202c62:	1141                	addi	sp,sp,-16
    80202c64:	e406                	sd	ra,8(sp)
    80202c66:	e022                	sd	s0,0(sp)
    80202c68:	0800                	addi	s0,sp,16
    80202c6a:	85aa                	mv	a1,a0

0000000080202c6c <.LBB0_1>:
    80202c6c:	0002e517          	auipc	a0,0x2e
    80202c70:	4a450513          	addi	a0,a0,1188 # 80231110 <.L__unnamed_2+0xb0>
    80202c74:	6110                	ld	a2,0(a0)
    80202c76:	6508                	ld	a0,8(a0)
    80202c78:	e190                	sd	a2,0(a1)
    80202c7a:	e588                	sd	a0,8(a1)
    80202c7c:	4501                	li	a0,0
    80202c7e:	e988                	sd	a0,16(a1)
    80202c80:	60a2                	ld	ra,8(sp)
    80202c82:	6402                	ld	s0,0(sp)
    80202c84:	0141                	addi	sp,sp,16
    80202c86:	8082                	ret

0000000080202c88 <_ZN5alloc3vec12Vec$LT$T$GT$3new17h8337b325162c2c06E>:
    80202c88:	1141                	addi	sp,sp,-16
    80202c8a:	e406                	sd	ra,8(sp)
    80202c8c:	e022                	sd	s0,0(sp)
    80202c8e:	0800                	addi	s0,sp,16
    80202c90:	85aa                	mv	a1,a0

0000000080202c92 <.LBB1_1>:
    80202c92:	0002e517          	auipc	a0,0x2e
    80202c96:	47e50513          	addi	a0,a0,1150 # 80231110 <.L__unnamed_2+0xb0>
    80202c9a:	6110                	ld	a2,0(a0)
    80202c9c:	6508                	ld	a0,8(a0)
    80202c9e:	e190                	sd	a2,0(a1)
    80202ca0:	e588                	sd	a0,8(a1)
    80202ca2:	4501                	li	a0,0
    80202ca4:	e988                	sd	a0,16(a1)
    80202ca6:	60a2                	ld	ra,8(sp)
    80202ca8:	6402                	ld	s0,0(sp)
    80202caa:	0141                	addi	sp,sp,16
    80202cac:	8082                	ret

0000000080202cae <_ZN5alloc3vec12Vec$LT$T$GT$3new17hd0783a7bfaea2fefE>:
    80202cae:	1141                	addi	sp,sp,-16
    80202cb0:	e406                	sd	ra,8(sp)
    80202cb2:	e022                	sd	s0,0(sp)
    80202cb4:	0800                	addi	s0,sp,16
    80202cb6:	85aa                	mv	a1,a0

0000000080202cb8 <.LBB2_1>:
    80202cb8:	0002e517          	auipc	a0,0x2e
    80202cbc:	45850513          	addi	a0,a0,1112 # 80231110 <.L__unnamed_2+0xb0>
    80202cc0:	6110                	ld	a2,0(a0)
    80202cc2:	6508                	ld	a0,8(a0)
    80202cc4:	e190                	sd	a2,0(a1)
    80202cc6:	e588                	sd	a0,8(a1)
    80202cc8:	4501                	li	a0,0
    80202cca:	e988                	sd	a0,16(a1)
    80202ccc:	60a2                	ld	ra,8(sp)
    80202cce:	6402                	ld	s0,0(sp)
    80202cd0:	0141                	addi	sp,sp,16
    80202cd2:	8082                	ret

0000000080202cd4 <_ZN5alloc3vec12Vec$LT$T$GT$3new17hf89d209aa53bc4d9E>:
    80202cd4:	1141                	addi	sp,sp,-16
    80202cd6:	e406                	sd	ra,8(sp)
    80202cd8:	e022                	sd	s0,0(sp)
    80202cda:	0800                	addi	s0,sp,16
    80202cdc:	85aa                	mv	a1,a0

0000000080202cde <.LBB3_1>:
    80202cde:	0002e517          	auipc	a0,0x2e
    80202ce2:	43250513          	addi	a0,a0,1074 # 80231110 <.L__unnamed_2+0xb0>
    80202ce6:	6110                	ld	a2,0(a0)
    80202ce8:	6508                	ld	a0,8(a0)
    80202cea:	e190                	sd	a2,0(a1)
    80202cec:	e588                	sd	a0,8(a1)
    80202cee:	4501                	li	a0,0
    80202cf0:	e988                	sd	a0,16(a1)
    80202cf2:	60a2                	ld	ra,8(sp)
    80202cf4:	6402                	ld	s0,0(sp)
    80202cf6:	0141                	addi	sp,sp,16
    80202cf8:	8082                	ret

0000000080202cfa <_ZN5alloc3vec16Vec$LT$T$C$A$GT$17from_raw_parts_in17h92096b975704b15bE>:
    80202cfa:	7119                	addi	sp,sp,-128
    80202cfc:	fc86                	sd	ra,120(sp)
    80202cfe:	f8a2                	sd	s0,112(sp)
    80202d00:	0100                	addi	s0,sp,128
    80202d02:	fab43423          	sd	a1,-88(s0)
    80202d06:	fac43823          	sd	a2,-80(s0)
    80202d0a:	fad43c23          	sd	a3,-72(s0)
    80202d0e:	fcb43823          	sd	a1,-48(s0)
    80202d12:	fcd43c23          	sd	a3,-40(s0)
    80202d16:	feb43023          	sd	a1,-32(s0)
    80202d1a:	feb43423          	sd	a1,-24(s0)
    80202d1e:	fab43023          	sd	a1,-96(s0)
    80202d22:	fa043583          	ld	a1,-96(s0)
    80202d26:	f8b43c23          	sd	a1,-104(s0)
    80202d2a:	f9843583          	ld	a1,-104(s0)
    80202d2e:	f8b43823          	sd	a1,-112(s0)
    80202d32:	f8d43423          	sd	a3,-120(s0)
    80202d36:	f8843683          	ld	a3,-120(s0)
    80202d3a:	f9043583          	ld	a1,-112(s0)
    80202d3e:	e114                	sd	a3,0(a0)
    80202d40:	e50c                	sd	a1,8(a0)
    80202d42:	e910                	sd	a2,16(a0)
    80202d44:	70e6                	ld	ra,120(sp)
    80202d46:	7446                	ld	s0,112(sp)
    80202d48:	6109                	addi	sp,sp,128
    80202d4a:	8082                	ret

0000000080202d4c <_ZN5alloc3vec16Vec$LT$T$C$A$GT$3len17hea010309df287bb1E>:
    80202d4c:	1101                	addi	sp,sp,-32
    80202d4e:	ec06                	sd	ra,24(sp)
    80202d50:	e822                	sd	s0,16(sp)
    80202d52:	1000                	addi	s0,sp,32
    80202d54:	fea43423          	sd	a0,-24(s0)
    80202d58:	6908                	ld	a0,16(a0)
    80202d5a:	60e2                	ld	ra,24(sp)
    80202d5c:	6442                	ld	s0,16(sp)
    80202d5e:	6105                	addi	sp,sp,32
    80202d60:	8082                	ret

0000000080202d62 <_ZN5alloc3vec16Vec$LT$T$C$A$GT$3pop17he77792f0946c1c77E>:
    80202d62:	7115                	addi	sp,sp,-224
    80202d64:	ed86                	sd	ra,216(sp)
    80202d66:	e9a2                	sd	s0,208(sp)
    80202d68:	1180                	addi	s0,sp,224
    80202d6a:	f2a43423          	sd	a0,-216(s0)
    80202d6e:	f4a43823          	sd	a0,-176(s0)
    80202d72:	6908                	ld	a0,16(a0)
    80202d74:	4581                	li	a1,0
    80202d76:	00b51763          	bne	a0,a1,80202d84 <_ZN5alloc3vec16Vec$LT$T$C$A$GT$3pop17he77792f0946c1c77E+0x22>
    80202d7a:	a009                	j	80202d7c <_ZN5alloc3vec16Vec$LT$T$C$A$GT$3pop17he77792f0946c1c77E+0x1a>
    80202d7c:	4501                	li	a0,0
    80202d7e:	f2a43823          	sd	a0,-208(s0)
    80202d82:	a069                	j	80202e0c <_ZN5alloc3vec16Vec$LT$T$C$A$GT$3pop17he77792f0946c1c77E+0xaa>
    80202d84:	f2843583          	ld	a1,-216(s0)
    80202d88:	6988                	ld	a0,16(a1)
    80202d8a:	157d                	addi	a0,a0,-1
    80202d8c:	e988                	sd	a0,16(a1)
    80202d8e:	f4b43c23          	sd	a1,-168(s0)
    80202d92:	f6b43023          	sd	a1,-160(s0)
    80202d96:	6588                	ld	a0,8(a1)
    80202d98:	f2a43023          	sd	a0,-224(s0)
    80202d9c:	f6a43423          	sd	a0,-152(s0)
    80202da0:	f6a43823          	sd	a0,-144(s0)
    80202da4:	f6a43c23          	sd	a0,-136(s0)
    80202da8:	f8a43023          	sd	a0,-128(s0)
    80202dac:	f4a43023          	sd	a0,-192(s0)
    80202db0:	f4043603          	ld	a2,-192(s0)
    80202db4:	f8c43423          	sd	a2,-120(s0)
    80202db8:	f8c43823          	sd	a2,-112(s0)
    80202dbc:	f8c43c23          	sd	a2,-104(s0)
    80202dc0:	faa43023          	sd	a0,-96(s0)
    80202dc4:	fab43423          	sd	a1,-88(s0)
    80202dc8:	698c                	ld	a1,16(a1)
    80202dca:	fab43823          	sd	a1,-80(s0)
    80202dce:	faa43c23          	sd	a0,-72(s0)
    80202dd2:	fcb43023          	sd	a1,-64(s0)
    80202dd6:	058e                	slli	a1,a1,0x3
    80202dd8:	952e                	add	a0,a0,a1
    80202dda:	fca43423          	sd	a0,-56(s0)
    80202dde:	fc843503          	ld	a0,-56(s0)
    80202de2:	fca43823          	sd	a0,-48(s0)
    80202de6:	f4840593          	addi	a1,s0,-184
    80202dea:	fcb43c23          	sd	a1,-40(s0)
    80202dee:	6108                	ld	a0,0(a0)
    80202df0:	f4a43423          	sd	a0,-184(s0)
    80202df4:	f4843503          	ld	a0,-184(s0)
    80202df8:	fea43023          	sd	a0,-32(s0)
    80202dfc:	fea43423          	sd	a0,-24(s0)
    80202e00:	f2a43c23          	sd	a0,-200(s0)
    80202e04:	4505                	li	a0,1
    80202e06:	f2a43823          	sd	a0,-208(s0)
    80202e0a:	a009                	j	80202e0c <_ZN5alloc3vec16Vec$LT$T$C$A$GT$3pop17he77792f0946c1c77E+0xaa>
    80202e0c:	f3043503          	ld	a0,-208(s0)
    80202e10:	f3843583          	ld	a1,-200(s0)
    80202e14:	60ee                	ld	ra,216(sp)
    80202e16:	644e                	ld	s0,208(sp)
    80202e18:	612d                	addi	sp,sp,224
    80202e1a:	8082                	ret

0000000080202e1c <_ZN5alloc3vec16Vec$LT$T$C$A$GT$4push17h24c53e626b5c7286E>:
    80202e1c:	7155                	addi	sp,sp,-208
    80202e1e:	e586                	sd	ra,200(sp)
    80202e20:	e1a2                	sd	s0,192(sp)
    80202e22:	0980                	addi	s0,sp,208
    80202e24:	f2b43823          	sd	a1,-208(s0)
    80202e28:	f2a43c23          	sd	a0,-200(s0)
    80202e2c:	f6a43023          	sd	a0,-160(s0)
    80202e30:	f6b43423          	sd	a1,-152(s0)
    80202e34:	690c                	ld	a1,16(a0)
    80202e36:	f4b43023          	sd	a1,-192(s0)
    80202e3a:	f6a43823          	sd	a0,-144(s0)
    80202e3e:	4501                	li	a0,0
    80202e40:	00a51963          	bne	a0,a0,80202e52 <_ZN5alloc3vec16Vec$LT$T$C$A$GT$4push17h24c53e626b5c7286E+0x36>
    80202e44:	a009                	j	80202e46 <_ZN5alloc3vec16Vec$LT$T$C$A$GT$4push17h24c53e626b5c7286E+0x2a>
    80202e46:	f3843503          	ld	a0,-200(s0)
    80202e4a:	6108                	ld	a0,0(a0)
    80202e4c:	f4a43423          	sd	a0,-184(s0)
    80202e50:	a029                	j	80202e5a <_ZN5alloc3vec16Vec$LT$T$C$A$GT$4push17h24c53e626b5c7286E+0x3e>
    80202e52:	557d                	li	a0,-1
    80202e54:	f4a43423          	sd	a0,-184(s0)
    80202e58:	a009                	j	80202e5a <_ZN5alloc3vec16Vec$LT$T$C$A$GT$4push17h24c53e626b5c7286E+0x3e>
    80202e5a:	f4043503          	ld	a0,-192(s0)
    80202e5e:	f4843583          	ld	a1,-184(s0)
    80202e62:	06b50b63          	beq	a0,a1,80202ed8 <_ZN5alloc3vec16Vec$LT$T$C$A$GT$4push17h24c53e626b5c7286E+0xbc>
    80202e66:	a009                	j	80202e68 <_ZN5alloc3vec16Vec$LT$T$C$A$GT$4push17h24c53e626b5c7286E+0x4c>
    80202e68:	f3843583          	ld	a1,-200(s0)
    80202e6c:	f3043503          	ld	a0,-208(s0)
    80202e70:	f6b43c23          	sd	a1,-136(s0)
    80202e74:	f8b43023          	sd	a1,-128(s0)
    80202e78:	6590                	ld	a2,8(a1)
    80202e7a:	f8c43423          	sd	a2,-120(s0)
    80202e7e:	f8c43823          	sd	a2,-112(s0)
    80202e82:	f8c43c23          	sd	a2,-104(s0)
    80202e86:	fac43023          	sd	a2,-96(s0)
    80202e8a:	f4c43c23          	sd	a2,-168(s0)
    80202e8e:	f5843683          	ld	a3,-168(s0)
    80202e92:	fad43423          	sd	a3,-88(s0)
    80202e96:	fad43823          	sd	a3,-80(s0)
    80202e9a:	fad43c23          	sd	a3,-72(s0)
    80202e9e:	6994                	ld	a3,16(a1)
    80202ea0:	fcd43023          	sd	a3,-64(s0)
    80202ea4:	fcc43423          	sd	a2,-56(s0)
    80202ea8:	fcd43823          	sd	a3,-48(s0)
    80202eac:	068e                	slli	a3,a3,0x3
    80202eae:	9636                	add	a2,a2,a3
    80202eb0:	fcc43c23          	sd	a2,-40(s0)
    80202eb4:	fd843603          	ld	a2,-40(s0)
    80202eb8:	fec43023          	sd	a2,-32(s0)
    80202ebc:	fec43423          	sd	a2,-24(s0)
    80202ec0:	f4a43823          	sd	a0,-176(s0)
    80202ec4:	f5043503          	ld	a0,-176(s0)
    80202ec8:	e208                	sd	a0,0(a2)
    80202eca:	6988                	ld	a0,16(a1)
    80202ecc:	0505                	addi	a0,a0,1
    80202ece:	e988                	sd	a0,16(a1)
    80202ed0:	60ae                	ld	ra,200(sp)
    80202ed2:	640e                	ld	s0,192(sp)
    80202ed4:	6169                	addi	sp,sp,208
    80202ed6:	8082                	ret
    80202ed8:	f3843503          	ld	a0,-200(s0)
    80202edc:	690c                	ld	a1,16(a0)
    80202ede:	00017097          	auipc	ra,0x17
    80202ee2:	1ea080e7          	jalr	490(ra) # 8021a0c8 <_ZN5alloc7raw_vec19RawVec$LT$T$C$A$GT$16reserve_for_push17hcf3c5c174e02b167E>
    80202ee6:	b749                	j	80202e68 <_ZN5alloc3vec16Vec$LT$T$C$A$GT$4push17h24c53e626b5c7286E+0x4c>

0000000080202ee8 <_ZN5alloc3vec16Vec$LT$T$C$A$GT$4push17h256e3694491fa747E>:
    80202ee8:	712d                	addi	sp,sp,-288
    80202eea:	ee06                	sd	ra,280(sp)
    80202eec:	ea22                	sd	s0,272(sp)
    80202eee:	1200                	addi	s0,sp,288
    80202ef0:	eeb43c23          	sd	a1,-264(s0)
    80202ef4:	f0a43023          	sd	a0,-256(s0)
    80202ef8:	f6a43423          	sd	a0,-152(s0)
    80202efc:	690c                	ld	a1,16(a0)
    80202efe:	f0b43423          	sd	a1,-248(s0)
    80202f02:	f6a43823          	sd	a0,-144(s0)
    80202f06:	4501                	li	a0,0
    80202f08:	00a51963          	bne	a0,a0,80202f1a <_ZN5alloc3vec16Vec$LT$T$C$A$GT$4push17h256e3694491fa747E+0x32>
    80202f0c:	a009                	j	80202f0e <_ZN5alloc3vec16Vec$LT$T$C$A$GT$4push17h256e3694491fa747E+0x26>
    80202f0e:	f0043503          	ld	a0,-256(s0)
    80202f12:	6108                	ld	a0,0(a0)
    80202f14:	f0a43823          	sd	a0,-240(s0)
    80202f18:	a029                	j	80202f22 <_ZN5alloc3vec16Vec$LT$T$C$A$GT$4push17h256e3694491fa747E+0x3a>
    80202f1a:	557d                	li	a0,-1
    80202f1c:	f0a43823          	sd	a0,-240(s0)
    80202f20:	a009                	j	80202f22 <_ZN5alloc3vec16Vec$LT$T$C$A$GT$4push17h256e3694491fa747E+0x3a>
    80202f22:	f0843503          	ld	a0,-248(s0)
    80202f26:	f1043583          	ld	a1,-240(s0)
    80202f2a:	0ab50163          	beq	a0,a1,80202fcc <_ZN5alloc3vec16Vec$LT$T$C$A$GT$4push17h256e3694491fa747E+0xe4>
    80202f2e:	a009                	j	80202f30 <_ZN5alloc3vec16Vec$LT$T$C$A$GT$4push17h256e3694491fa747E+0x48>
    80202f30:	f0043603          	ld	a2,-256(s0)
    80202f34:	ef843583          	ld	a1,-264(s0)
    80202f38:	f6c43c23          	sd	a2,-136(s0)
    80202f3c:	f8c43023          	sd	a2,-128(s0)
    80202f40:	6608                	ld	a0,8(a2)
    80202f42:	f8a43423          	sd	a0,-120(s0)
    80202f46:	f8a43823          	sd	a0,-112(s0)
    80202f4a:	f8a43c23          	sd	a0,-104(s0)
    80202f4e:	faa43023          	sd	a0,-96(s0)
    80202f52:	f6a43023          	sd	a0,-160(s0)
    80202f56:	f6043683          	ld	a3,-160(s0)
    80202f5a:	fad43423          	sd	a3,-88(s0)
    80202f5e:	fad43823          	sd	a3,-80(s0)
    80202f62:	fad43c23          	sd	a3,-72(s0)
    80202f66:	6a14                	ld	a3,16(a2)
    80202f68:	fcd43023          	sd	a3,-64(s0)
    80202f6c:	fca43423          	sd	a0,-56(s0)
    80202f70:	fcd43823          	sd	a3,-48(s0)
    80202f74:	04800613          	li	a2,72
    80202f78:	eec43423          	sd	a2,-280(s0)
    80202f7c:	02c686b3          	mul	a3,a3,a2
    80202f80:	9536                	add	a0,a0,a3
    80202f82:	fca43c23          	sd	a0,-40(s0)
    80202f86:	fd843503          	ld	a0,-40(s0)
    80202f8a:	eea43823          	sd	a0,-272(s0)
    80202f8e:	fea43023          	sd	a0,-32(s0)
    80202f92:	fea43423          	sd	a0,-24(s0)
    80202f96:	f1840513          	addi	a0,s0,-232
    80202f9a:	eea43023          	sd	a0,-288(s0)
    80202f9e:	0002e097          	auipc	ra,0x2e
    80202fa2:	c3c080e7          	jalr	-964(ra) # 80230bda <memcpy>
    80202fa6:	ee043583          	ld	a1,-288(s0)
    80202faa:	ee843603          	ld	a2,-280(s0)
    80202fae:	ef043503          	ld	a0,-272(s0)
    80202fb2:	0002e097          	auipc	ra,0x2e
    80202fb6:	c28080e7          	jalr	-984(ra) # 80230bda <memcpy>
    80202fba:	f0043583          	ld	a1,-256(s0)
    80202fbe:	6988                	ld	a0,16(a1)
    80202fc0:	0505                	addi	a0,a0,1
    80202fc2:	e988                	sd	a0,16(a1)
    80202fc4:	60f2                	ld	ra,280(sp)
    80202fc6:	6452                	ld	s0,272(sp)
    80202fc8:	6115                	addi	sp,sp,288
    80202fca:	8082                	ret
    80202fcc:	f0043503          	ld	a0,-256(s0)
    80202fd0:	690c                	ld	a1,16(a0)
    80202fd2:	00017097          	auipc	ra,0x17
    80202fd6:	0cc080e7          	jalr	204(ra) # 8021a09e <_ZN5alloc7raw_vec19RawVec$LT$T$C$A$GT$16reserve_for_push17h8370a47ab475d995E>
    80202fda:	bf99                	j	80202f30 <_ZN5alloc3vec16Vec$LT$T$C$A$GT$4push17h256e3694491fa747E+0x48>

0000000080202fdc <_ZN5alloc3vec16Vec$LT$T$C$A$GT$4push17h30a8978667682e99E>:
    80202fdc:	7155                	addi	sp,sp,-208
    80202fde:	e586                	sd	ra,200(sp)
    80202fe0:	e1a2                	sd	s0,192(sp)
    80202fe2:	0980                	addi	s0,sp,208
    80202fe4:	f2b43823          	sd	a1,-208(s0)
    80202fe8:	f2a43c23          	sd	a0,-200(s0)
    80202fec:	f6a43023          	sd	a0,-160(s0)
    80202ff0:	f6b43423          	sd	a1,-152(s0)
    80202ff4:	690c                	ld	a1,16(a0)
    80202ff6:	f4b43023          	sd	a1,-192(s0)
    80202ffa:	f6a43823          	sd	a0,-144(s0)
    80202ffe:	4501                	li	a0,0
    80203000:	00a51963          	bne	a0,a0,80203012 <_ZN5alloc3vec16Vec$LT$T$C$A$GT$4push17h30a8978667682e99E+0x36>
    80203004:	a009                	j	80203006 <_ZN5alloc3vec16Vec$LT$T$C$A$GT$4push17h30a8978667682e99E+0x2a>
    80203006:	f3843503          	ld	a0,-200(s0)
    8020300a:	6108                	ld	a0,0(a0)
    8020300c:	f4a43423          	sd	a0,-184(s0)
    80203010:	a029                	j	8020301a <_ZN5alloc3vec16Vec$LT$T$C$A$GT$4push17h30a8978667682e99E+0x3e>
    80203012:	557d                	li	a0,-1
    80203014:	f4a43423          	sd	a0,-184(s0)
    80203018:	a009                	j	8020301a <_ZN5alloc3vec16Vec$LT$T$C$A$GT$4push17h30a8978667682e99E+0x3e>
    8020301a:	f4043503          	ld	a0,-192(s0)
    8020301e:	f4843583          	ld	a1,-184(s0)
    80203022:	06b50b63          	beq	a0,a1,80203098 <_ZN5alloc3vec16Vec$LT$T$C$A$GT$4push17h30a8978667682e99E+0xbc>
    80203026:	a009                	j	80203028 <_ZN5alloc3vec16Vec$LT$T$C$A$GT$4push17h30a8978667682e99E+0x4c>
    80203028:	f3843583          	ld	a1,-200(s0)
    8020302c:	f3043503          	ld	a0,-208(s0)
    80203030:	f6b43c23          	sd	a1,-136(s0)
    80203034:	f8b43023          	sd	a1,-128(s0)
    80203038:	6590                	ld	a2,8(a1)
    8020303a:	f8c43423          	sd	a2,-120(s0)
    8020303e:	f8c43823          	sd	a2,-112(s0)
    80203042:	f8c43c23          	sd	a2,-104(s0)
    80203046:	fac43023          	sd	a2,-96(s0)
    8020304a:	f4c43c23          	sd	a2,-168(s0)
    8020304e:	f5843683          	ld	a3,-168(s0)
    80203052:	fad43423          	sd	a3,-88(s0)
    80203056:	fad43823          	sd	a3,-80(s0)
    8020305a:	fad43c23          	sd	a3,-72(s0)
    8020305e:	6994                	ld	a3,16(a1)
    80203060:	fcd43023          	sd	a3,-64(s0)
    80203064:	fcc43423          	sd	a2,-56(s0)
    80203068:	fcd43823          	sd	a3,-48(s0)
    8020306c:	068e                	slli	a3,a3,0x3
    8020306e:	9636                	add	a2,a2,a3
    80203070:	fcc43c23          	sd	a2,-40(s0)
    80203074:	fd843603          	ld	a2,-40(s0)
    80203078:	fec43023          	sd	a2,-32(s0)
    8020307c:	fec43423          	sd	a2,-24(s0)
    80203080:	f4a43823          	sd	a0,-176(s0)
    80203084:	f5043503          	ld	a0,-176(s0)
    80203088:	e208                	sd	a0,0(a2)
    8020308a:	6988                	ld	a0,16(a1)
    8020308c:	0505                	addi	a0,a0,1
    8020308e:	e988                	sd	a0,16(a1)
    80203090:	60ae                	ld	ra,200(sp)
    80203092:	640e                	ld	s0,192(sp)
    80203094:	6169                	addi	sp,sp,208
    80203096:	8082                	ret
    80203098:	f3843503          	ld	a0,-200(s0)
    8020309c:	690c                	ld	a1,16(a0)
    8020309e:	00017097          	auipc	ra,0x17
    802030a2:	07e080e7          	jalr	126(ra) # 8021a11c <_ZN5alloc7raw_vec19RawVec$LT$T$C$A$GT$16reserve_for_push17hde3c3928bca6b120E>
    802030a6:	b749                	j	80203028 <_ZN5alloc3vec16Vec$LT$T$C$A$GT$4push17h30a8978667682e99E+0x4c>

00000000802030a8 <_ZN5alloc3vec16Vec$LT$T$C$A$GT$4push17h7422139c2c999743E>:
    802030a8:	7115                	addi	sp,sp,-224
    802030aa:	ed86                	sd	ra,216(sp)
    802030ac:	e9a2                	sd	s0,208(sp)
    802030ae:	1180                	addi	s0,sp,224
    802030b0:	f2b43423          	sd	a1,-216(s0)
    802030b4:	f2a43823          	sd	a0,-208(s0)
    802030b8:	f6a43423          	sd	a0,-152(s0)
    802030bc:	690c                	ld	a1,16(a0)
    802030be:	f2b43c23          	sd	a1,-200(s0)
    802030c2:	f6a43823          	sd	a0,-144(s0)
    802030c6:	4501                	li	a0,0
    802030c8:	00a51963          	bne	a0,a0,802030da <_ZN5alloc3vec16Vec$LT$T$C$A$GT$4push17h7422139c2c999743E+0x32>
    802030cc:	a009                	j	802030ce <_ZN5alloc3vec16Vec$LT$T$C$A$GT$4push17h7422139c2c999743E+0x26>
    802030ce:	f3043503          	ld	a0,-208(s0)
    802030d2:	6108                	ld	a0,0(a0)
    802030d4:	f4a43023          	sd	a0,-192(s0)
    802030d8:	a029                	j	802030e2 <_ZN5alloc3vec16Vec$LT$T$C$A$GT$4push17h7422139c2c999743E+0x3a>
    802030da:	557d                	li	a0,-1
    802030dc:	f4a43023          	sd	a0,-192(s0)
    802030e0:	a009                	j	802030e2 <_ZN5alloc3vec16Vec$LT$T$C$A$GT$4push17h7422139c2c999743E+0x3a>
    802030e2:	f3843503          	ld	a0,-200(s0)
    802030e6:	f4043583          	ld	a1,-192(s0)
    802030ea:	08b50a63          	beq	a0,a1,8020317e <_ZN5alloc3vec16Vec$LT$T$C$A$GT$4push17h7422139c2c999743E+0xd6>
    802030ee:	a009                	j	802030f0 <_ZN5alloc3vec16Vec$LT$T$C$A$GT$4push17h7422139c2c999743E+0x48>
    802030f0:	f3043583          	ld	a1,-208(s0)
    802030f4:	f2843503          	ld	a0,-216(s0)
    802030f8:	f6b43c23          	sd	a1,-136(s0)
    802030fc:	f8b43023          	sd	a1,-128(s0)
    80203100:	6590                	ld	a2,8(a1)
    80203102:	f8c43423          	sd	a2,-120(s0)
    80203106:	f8c43823          	sd	a2,-112(s0)
    8020310a:	f8c43c23          	sd	a2,-104(s0)
    8020310e:	fac43023          	sd	a2,-96(s0)
    80203112:	f6c43023          	sd	a2,-160(s0)
    80203116:	f6043683          	ld	a3,-160(s0)
    8020311a:	fad43423          	sd	a3,-88(s0)
    8020311e:	fad43823          	sd	a3,-80(s0)
    80203122:	fad43c23          	sd	a3,-72(s0)
    80203126:	6994                	ld	a3,16(a1)
    80203128:	fcd43023          	sd	a3,-64(s0)
    8020312c:	fcc43423          	sd	a2,-56(s0)
    80203130:	fcd43823          	sd	a3,-48(s0)
    80203134:	4761                	li	a4,24
    80203136:	02e686b3          	mul	a3,a3,a4
    8020313a:	9636                	add	a2,a2,a3
    8020313c:	fcc43c23          	sd	a2,-40(s0)
    80203140:	fd843603          	ld	a2,-40(s0)
    80203144:	fec43023          	sd	a2,-32(s0)
    80203148:	fec43423          	sd	a2,-24(s0)
    8020314c:	6914                	ld	a3,16(a0)
    8020314e:	f4d43c23          	sd	a3,-168(s0)
    80203152:	6514                	ld	a3,8(a0)
    80203154:	f4d43823          	sd	a3,-176(s0)
    80203158:	6108                	ld	a0,0(a0)
    8020315a:	f4a43423          	sd	a0,-184(s0)
    8020315e:	f5843503          	ld	a0,-168(s0)
    80203162:	ea08                	sd	a0,16(a2)
    80203164:	f5043503          	ld	a0,-176(s0)
    80203168:	e608                	sd	a0,8(a2)
    8020316a:	f4843503          	ld	a0,-184(s0)
    8020316e:	e208                	sd	a0,0(a2)
    80203170:	6988                	ld	a0,16(a1)
    80203172:	0505                	addi	a0,a0,1
    80203174:	e988                	sd	a0,16(a1)
    80203176:	60ee                	ld	ra,216(sp)
    80203178:	644e                	ld	s0,208(sp)
    8020317a:	612d                	addi	sp,sp,224
    8020317c:	8082                	ret
    8020317e:	f3043503          	ld	a0,-208(s0)
    80203182:	690c                	ld	a1,16(a0)
    80203184:	00017097          	auipc	ra,0x17
    80203188:	f6e080e7          	jalr	-146(ra) # 8021a0f2 <_ZN5alloc7raw_vec19RawVec$LT$T$C$A$GT$16reserve_for_push17hd486c33959ee540bE>
    8020318c:	b795                	j	802030f0 <_ZN5alloc3vec16Vec$LT$T$C$A$GT$4push17h7422139c2c999743E+0x48>

000000008020318e <_ZN72_$LT$alloc..vec..Vec$LT$T$C$A$GT$$u20$as$u20$core..ops..deref..Deref$GT$5deref17h05a015e11d2678f9E>:
    8020318e:	7131                	addi	sp,sp,-192
    80203190:	fd06                	sd	ra,184(sp)
    80203192:	f922                	sd	s0,176(sp)
    80203194:	0180                	addi	s0,sp,192
    80203196:	f6a43423          	sd	a0,-152(s0)
    8020319a:	f6a43823          	sd	a0,-144(s0)
    8020319e:	f6a43c23          	sd	a0,-136(s0)
    802031a2:	650c                	ld	a1,8(a0)
    802031a4:	f8b43023          	sd	a1,-128(s0)
    802031a8:	f8b43423          	sd	a1,-120(s0)
    802031ac:	f8b43823          	sd	a1,-112(s0)
    802031b0:	f8b43c23          	sd	a1,-104(s0)
    802031b4:	f4b43023          	sd	a1,-192(s0)
    802031b8:	f4043603          	ld	a2,-192(s0)
    802031bc:	fac43023          	sd	a2,-96(s0)
    802031c0:	fac43423          	sd	a2,-88(s0)
    802031c4:	fac43823          	sd	a2,-80(s0)
    802031c8:	fab43c23          	sd	a1,-72(s0)
    802031cc:	6908                	ld	a0,16(a0)
    802031ce:	fca43023          	sd	a0,-64(s0)
    802031d2:	fcb43423          	sd	a1,-56(s0)
    802031d6:	fca43823          	sd	a0,-48(s0)
    802031da:	fcb43c23          	sd	a1,-40(s0)
    802031de:	feb43023          	sd	a1,-32(s0)
    802031e2:	fea43423          	sd	a0,-24(s0)
    802031e6:	f4b43c23          	sd	a1,-168(s0)
    802031ea:	f6a43023          	sd	a0,-160(s0)
    802031ee:	f5843583          	ld	a1,-168(s0)
    802031f2:	f6043503          	ld	a0,-160(s0)
    802031f6:	f4b43423          	sd	a1,-184(s0)
    802031fa:	f4a43823          	sd	a0,-176(s0)
    802031fe:	f4843503          	ld	a0,-184(s0)
    80203202:	f5043583          	ld	a1,-176(s0)
    80203206:	70ea                	ld	ra,184(sp)
    80203208:	744a                	ld	s0,176(sp)
    8020320a:	6129                	addi	sp,sp,192
    8020320c:	8082                	ret

000000008020320e <_ZN72_$LT$alloc..vec..Vec$LT$T$C$A$GT$$u20$as$u20$core..ops..deref..Deref$GT$5deref17h79ea5eabf686e2adE>:
    8020320e:	7131                	addi	sp,sp,-192
    80203210:	fd06                	sd	ra,184(sp)
    80203212:	f922                	sd	s0,176(sp)
    80203214:	0180                	addi	s0,sp,192
    80203216:	f6a43423          	sd	a0,-152(s0)
    8020321a:	f6a43823          	sd	a0,-144(s0)
    8020321e:	f6a43c23          	sd	a0,-136(s0)
    80203222:	650c                	ld	a1,8(a0)
    80203224:	f8b43023          	sd	a1,-128(s0)
    80203228:	f8b43423          	sd	a1,-120(s0)
    8020322c:	f8b43823          	sd	a1,-112(s0)
    80203230:	f8b43c23          	sd	a1,-104(s0)
    80203234:	f4b43023          	sd	a1,-192(s0)
    80203238:	f4043603          	ld	a2,-192(s0)
    8020323c:	fac43023          	sd	a2,-96(s0)
    80203240:	fac43423          	sd	a2,-88(s0)
    80203244:	fac43823          	sd	a2,-80(s0)
    80203248:	fab43c23          	sd	a1,-72(s0)
    8020324c:	6908                	ld	a0,16(a0)
    8020324e:	fca43023          	sd	a0,-64(s0)
    80203252:	fcb43423          	sd	a1,-56(s0)
    80203256:	fca43823          	sd	a0,-48(s0)
    8020325a:	fcb43c23          	sd	a1,-40(s0)
    8020325e:	feb43023          	sd	a1,-32(s0)
    80203262:	fea43423          	sd	a0,-24(s0)
    80203266:	f4b43c23          	sd	a1,-168(s0)
    8020326a:	f6a43023          	sd	a0,-160(s0)
    8020326e:	f5843583          	ld	a1,-168(s0)
    80203272:	f6043503          	ld	a0,-160(s0)
    80203276:	f4b43423          	sd	a1,-184(s0)
    8020327a:	f4a43823          	sd	a0,-176(s0)
    8020327e:	f4843503          	ld	a0,-184(s0)
    80203282:	f5043583          	ld	a1,-176(s0)
    80203286:	70ea                	ld	ra,184(sp)
    80203288:	744a                	ld	s0,176(sp)
    8020328a:	6129                	addi	sp,sp,192
    8020328c:	8082                	ret

000000008020328e <_ZN81_$LT$alloc..vec..Vec$LT$T$C$A$GT$$u20$as$u20$core..ops..index..Index$LT$I$GT$$GT$5index17h77f0c7ffa0d3a71bE>:
    8020328e:	715d                	addi	sp,sp,-80
    80203290:	e486                	sd	ra,72(sp)
    80203292:	e0a2                	sd	s0,64(sp)
    80203294:	0880                	addi	s0,sp,80
    80203296:	fac43823          	sd	a2,-80(s0)
    8020329a:	fab43c23          	sd	a1,-72(s0)
    8020329e:	fca43423          	sd	a0,-56(s0)
    802032a2:	fcb43823          	sd	a1,-48(s0)
    802032a6:	00000097          	auipc	ra,0x0
    802032aa:	ee8080e7          	jalr	-280(ra) # 8020318e <_ZN72_$LT$alloc..vec..Vec$LT$T$C$A$GT$$u20$as$u20$core..ops..deref..Deref$GT$5deref17h05a015e11d2678f9E>
    802032ae:	fb043683          	ld	a3,-80(s0)
    802032b2:	862a                	mv	a2,a0
    802032b4:	fb843503          	ld	a0,-72(s0)
    802032b8:	fcc43023          	sd	a2,-64(s0)
    802032bc:	862e                	mv	a2,a1
    802032be:	fc043583          	ld	a1,-64(s0)
    802032c2:	fcb43c23          	sd	a1,-40(s0)
    802032c6:	fec43023          	sd	a2,-32(s0)
    802032ca:	fea43423          	sd	a0,-24(s0)
    802032ce:	0001c097          	auipc	ra,0x1c
    802032d2:	50e080e7          	jalr	1294(ra) # 8021f7dc <_ZN75_$LT$usize$u20$as$u20$core..slice..index..SliceIndex$LT$$u5b$T$u5d$$GT$$GT$5index17h977fd9bec612ba66E>
    802032d6:	60a6                	ld	ra,72(sp)
    802032d8:	6406                	ld	s0,64(sp)
    802032da:	6161                	addi	sp,sp,80
    802032dc:	8082                	ret

00000000802032de <_ZN11hypocaust_24trap7context11TrapContext6set_sp17h90b7450c204a929eE>:
    802032de:	1101                	addi	sp,sp,-32
    802032e0:	ec06                	sd	ra,24(sp)
    802032e2:	e822                	sd	s0,16(sp)
    802032e4:	1000                	addi	s0,sp,32
    802032e6:	fea43023          	sd	a0,-32(s0)
    802032ea:	feb43423          	sd	a1,-24(s0)
    802032ee:	e90c                	sd	a1,16(a0)
    802032f0:	60e2                	ld	ra,24(sp)
    802032f2:	6442                	ld	s0,16(sp)
    802032f4:	6105                	addi	sp,sp,32
    802032f6:	8082                	ret

00000000802032f8 <_ZN11hypocaust_24trap7context11TrapContext18initialize_context17h87f91cdcfc6dacdcE>:
    802032f8:	7161                	addi	sp,sp,-432
    802032fa:	f706                	sd	ra,424(sp)
    802032fc:	f322                	sd	s0,416(sp)
    802032fe:	1b00                	addi	s0,sp,432
    80203300:	e8f43823          	sd	a5,-368(s0)
    80203304:	e8e43423          	sd	a4,-376(s0)
    80203308:	e8d43023          	sd	a3,-384(s0)
    8020330c:	eac43023          	sd	a2,-352(s0)
    80203310:	e6b43c23          	sd	a1,-392(s0)
    80203314:	eaa43423          	sd	a0,-344(s0)
    80203318:	fcb43423          	sd	a1,-56(s0)
    8020331c:	fcc43823          	sd	a2,-48(s0)
    80203320:	fcd43c23          	sd	a3,-40(s0)
    80203324:	fee43023          	sd	a4,-32(s0)
    80203328:	fef43423          	sd	a5,-24(s0)
    8020332c:	00006097          	auipc	ra,0x6
    80203330:	d32080e7          	jalr	-718(ra) # 8020905e <_ZN5riscv8register7sstatus4read17hb29500faa11218fcE>
    80203334:	eaa43823          	sd	a0,-336(s0)
    80203338:	4505                	li	a0,1
    8020333a:	e4a43c23          	sd	a0,-424(s0)
    8020333e:	eaa40fa3          	sb	a0,-321(s0)
    80203342:	ebf44583          	lbu	a1,-321(s0)
    80203346:	eb040513          	addi	a0,s0,-336
    8020334a:	00006097          	auipc	ra,0x6
    8020334e:	d86080e7          	jalr	-634(ra) # 802090d0 <_ZN5riscv8register7sstatus7Sstatus7set_spp17h4eea8d84269ebb8eE>
    80203352:	00003097          	auipc	ra,0x3
    80203356:	af0080e7          	jalr	-1296(ra) # 80205e42 <_ZN5riscv8register13hypervisorx647hstatus4read17ha644c06cab49b22cE>
    8020335a:	e5843583          	ld	a1,-424(s0)
    8020335e:	eca43023          	sd	a0,-320(s0)
    80203362:	ec040513          	addi	a0,s0,-320
    80203366:	00003097          	auipc	ra,0x3
    8020336a:	b18080e7          	jalr	-1256(ra) # 80205e7e <_ZN5riscv8register13hypervisorx647hstatus7Hstatus7set_spv17h31a8379d3d33ffcdE>
    8020336e:	ec840513          	addi	a0,s0,-312
    80203372:	e6a43023          	sd	a0,-416(s0)
    80203376:	4581                	li	a1,0
    80203378:	10000613          	li	a2,256
    8020337c:	e6c43423          	sd	a2,-408(s0)
    80203380:	0002d097          	auipc	ra,0x2d
    80203384:	598080e7          	jalr	1432(ra) # 80230918 <memset>
    80203388:	e6043583          	ld	a1,-416(s0)
    8020338c:	e6843603          	ld	a2,-408(s0)
    80203390:	ea843503          	ld	a0,-344(s0)
    80203394:	eb043683          	ld	a3,-336(s0)
    80203398:	e6d43823          	sd	a3,-400(s0)
    8020339c:	ec043683          	ld	a3,-320(s0)
    802033a0:	e8d43c23          	sd	a3,-360(s0)
    802033a4:	0002e097          	auipc	ra,0x2e
    802033a8:	836080e7          	jalr	-1994(ra) # 80230bda <memcpy>
    802033ac:	e7043883          	ld	a7,-400(s0)
    802033b0:	e7843803          	ld	a6,-392(s0)
    802033b4:	e8043683          	ld	a3,-384(s0)
    802033b8:	e8843703          	ld	a4,-376(s0)
    802033bc:	e9043783          	ld	a5,-368(s0)
    802033c0:	e9843603          	ld	a2,-360(s0)
    802033c4:	ea043583          	ld	a1,-352(s0)
    802033c8:	ea843503          	ld	a0,-344(s0)
    802033cc:	11153023          	sd	a7,256(a0)
    802033d0:	11053423          	sd	a6,264(a0)
    802033d4:	10d53823          	sd	a3,272(a0)
    802033d8:	10e53c23          	sd	a4,280(a0)
    802033dc:	12f53023          	sd	a5,288(a0)
    802033e0:	12c53423          	sd	a2,296(a0)
    802033e4:	00000097          	auipc	ra,0x0
    802033e8:	efa080e7          	jalr	-262(ra) # 802032de <_ZN11hypocaust_24trap7context11TrapContext6set_sp17h90b7450c204a929eE>
    802033ec:	70ba                	ld	ra,424(sp)
    802033ee:	741a                	ld	s0,416(sp)
    802033f0:	615d                	addi	sp,sp,432
    802033f2:	8082                	ret

00000000802033f4 <_ZN11hypocaust_26detect18detect_h_extension28_$u7b$$u7b$closure$u7d$$u7d$17h091b64e02b401b0fE>:
    802033f4:	1101                	addi	sp,sp,-32
    802033f6:	ec06                	sd	ra,24(sp)
    802033f8:	e822                	sd	s0,16(sp)
    802033fa:	1000                	addi	s0,sp,32
    802033fc:	68002573          	csrr	a0,0x680
    80203400:	60e2                	ld	ra,24(sp)
    80203402:	6442                	ld	s0,16(sp)
    80203404:	6105                	addi	sp,sp,32
    80203406:	8082                	ret

0000000080203408 <_ZN11hypocaust_26detect16with_detect_trap17h23a9c235c059408cE>:
    80203408:	7159                	addi	sp,sp,-112
    8020340a:	f486                	sd	ra,104(sp)
    8020340c:	f0a2                	sd	s0,96(sp)
    8020340e:	1880                	addi	s0,sp,112
    80203410:	85aa                	mv	a1,a0
    80203412:	fcb43423          	sd	a1,-56(s0)
    80203416:	fb040513          	addi	a0,s0,-80
    8020341a:	00014097          	auipc	ra,0x14
    8020341e:	be0080e7          	jalr	-1056(ra) # 80216ffa <_ZN11hypocaust_26detect16init_detect_trap17h3bd2b42a54cb1760E>
    80203422:	fb844503          	lbu	a0,-72(s0)
    80203426:	f8a43c23          	sd	a0,-104(s0)
    8020342a:	fca40ba3          	sb	a0,-41(s0)
    8020342e:	fb043503          	ld	a0,-80(s0)
    80203432:	faa43023          	sd	a0,-96(s0)
    80203436:	fca43c23          	sd	a0,-40(s0)
    8020343a:	fc043503          	ld	a0,-64(s0)
    8020343e:	faa43423          	sd	a0,-88(s0)
    80203442:	fea43023          	sd	a0,-32(s0)
    80203446:	00000097          	auipc	ra,0x0
    8020344a:	fae080e7          	jalr	-82(ra) # 802033f4 <_ZN11hypocaust_26detect18detect_h_extension28_$u7b$$u7b$closure$u7d$$u7d$17h091b64e02b401b0fE>
    8020344e:	f9843503          	ld	a0,-104(s0)
    80203452:	fa043583          	ld	a1,-96(s0)
    80203456:	fa843603          	ld	a2,-88(s0)
    8020345a:	00014097          	auipc	ra,0x14
    8020345e:	c86080e7          	jalr	-890(ra) # 802170e0 <_ZN11hypocaust_26detect19restore_detect_trap17hddcfd8e656545847E>
    80203462:	fea43423          	sd	a0,-24(s0)
    80203466:	70a6                	ld	ra,104(sp)
    80203468:	7406                	ld	s0,96(sp)
    8020346a:	6165                	addi	sp,sp,112
    8020346c:	8082                	ret

000000008020346e <_ZN86_$LT$spin..mutex..spin..SpinMutexGuard$LT$T$GT$$u20$as$u20$core..ops..deref..Deref$GT$5deref17h8eaa188d51b1324cE>:
    8020346e:	1101                	addi	sp,sp,-32
    80203470:	ec06                	sd	ra,24(sp)
    80203472:	e822                	sd	s0,16(sp)
    80203474:	1000                	addi	s0,sp,32
    80203476:	fea43423          	sd	a0,-24(s0)
    8020347a:	6108                	ld	a0,0(a0)
    8020347c:	60e2                	ld	ra,24(sp)
    8020347e:	6442                	ld	s0,16(sp)
    80203480:	6105                	addi	sp,sp,32
    80203482:	8082                	ret

0000000080203484 <_ZN89_$LT$spin..mutex..spin..SpinMutexGuard$LT$T$GT$$u20$as$u20$core..ops..deref..DerefMut$GT$9deref_mut17h368d4669240a4182E>:
    80203484:	1101                	addi	sp,sp,-32
    80203486:	ec06                	sd	ra,24(sp)
    80203488:	e822                	sd	s0,16(sp)
    8020348a:	1000                	addi	s0,sp,32
    8020348c:	fea43423          	sd	a0,-24(s0)
    80203490:	6108                	ld	a0,0(a0)
    80203492:	60e2                	ld	ra,24(sp)
    80203494:	6442                	ld	s0,16(sp)
    80203496:	6105                	addi	sp,sp,32
    80203498:	8082                	ret

000000008020349a <_ZN4core4char7methods15encode_utf8_raw17h4696cb03f80f4438E>:
    8020349a:	dc010113          	addi	sp,sp,-576 # 80239dc0 <.LCPI686_1+0xa2c>
    8020349e:	22113c23          	sd	ra,568(sp)
    802034a2:	22813823          	sd	s0,560(sp)
    802034a6:	0480                	addi	s0,sp,576
    802034a8:	dcc43c23          	sd	a2,-552(s0)
    802034ac:	dcb43823          	sd	a1,-560(s0)
    802034b0:	dea42623          	sw	a0,-532(s0)
    802034b4:	ecb43023          	sd	a1,-320(s0)
    802034b8:	ecc43423          	sd	a2,-312(s0)
    802034bc:	dec42503          	lw	a0,-532(s0)
    802034c0:	00000097          	auipc	ra,0x0
    802034c4:	2ee080e7          	jalr	750(ra) # 802037ae <_ZN4core4char7methods8len_utf817he92f5dfd6c09bdb4E>
    802034c8:	dd043583          	ld	a1,-560(s0)
    802034cc:	dd843603          	ld	a2,-552(s0)
    802034d0:	dea43823          	sd	a0,-528(s0)
    802034d4:	df043503          	ld	a0,-528(s0)
    802034d8:	eeb43023          	sd	a1,-288(s0)
    802034dc:	eec43423          	sd	a2,-280(s0)
    802034e0:	eeb43823          	sd	a1,-272(s0)
    802034e4:	eec43c23          	sd	a2,-264(s0)
    802034e8:	dea43c23          	sd	a0,-520(s0)
    802034ec:	e0b43023          	sd	a1,-512(s0)
    802034f0:	e0c43423          	sd	a2,-504(s0)
    802034f4:	df843503          	ld	a0,-520(s0)
    802034f8:	dea43023          	sd	a0,-544(s0)
    802034fc:	4585                	li	a1,1
    802034fe:	12b50063          	beq	a0,a1,8020361e <.LBB0_17+0x12>
    80203502:	a009                	j	80203504 <_ZN4core4char7methods15encode_utf8_raw17h4696cb03f80f4438E+0x6a>
    80203504:	de043503          	ld	a0,-544(s0)
    80203508:	4589                	li	a1,2
    8020350a:	12b50063          	beq	a0,a1,8020362a <.LBB0_17+0x1e>
    8020350e:	a009                	j	80203510 <_ZN4core4char7methods15encode_utf8_raw17h4696cb03f80f4438E+0x76>
    80203510:	de043503          	ld	a0,-544(s0)
    80203514:	458d                	li	a1,3
    80203516:	12b50063          	beq	a0,a1,80203636 <.LBB0_17+0x2a>
    8020351a:	a009                	j	8020351c <_ZN4core4char7methods15encode_utf8_raw17h4696cb03f80f4438E+0x82>
    8020351c:	de043503          	ld	a0,-544(s0)
    80203520:	4591                	li	a1,4
    80203522:	12b50063          	beq	a0,a1,80203642 <.LBB0_17+0x36>
    80203526:	a009                	j	80203528 <_ZN4core4char7methods15encode_utf8_raw17h4696cb03f80f4438E+0x8e>
    80203528:	dd843583          	ld	a1,-552(s0)
    8020352c:	df040693          	addi	a3,s0,-528
    80203530:	f6d43c23          	sd	a3,-136(s0)
    80203534:	f8d43023          	sd	a3,-128(s0)

0000000080203538 <.LBB0_14>:
    80203538:	0002d517          	auipc	a0,0x2d
    8020353c:	11050513          	addi	a0,a0,272 # 80230648 <_ZN4core3fmt3num3imp52_$LT$impl$u20$core..fmt..Display$u20$for$u20$u64$GT$3fmt17h637b75f18de6578eE>
    80203540:	f8a43423          	sd	a0,-120(s0)
    80203544:	f8a43823          	sd	a0,-112(s0)
    80203548:	f9043603          	ld	a2,-112(s0)
    8020354c:	f8d43c23          	sd	a3,-104(s0)
    80203550:	f9843683          	ld	a3,-104(s0)
    80203554:	e6d43823          	sd	a3,-400(s0)
    80203558:	e6c43c23          	sd	a2,-392(s0)
    8020355c:	dec40693          	addi	a3,s0,-532
    80203560:	fad43023          	sd	a3,-96(s0)
    80203564:	fad43423          	sd	a3,-88(s0)

0000000080203568 <.LBB0_15>:
    80203568:	0002d617          	auipc	a2,0x2d
    8020356c:	c0a60613          	addi	a2,a2,-1014 # 80230172 <_ZN4core3fmt3num53_$LT$impl$u20$core..fmt..UpperHex$u20$for$u20$i32$GT$3fmt17h9a5a666391b7a26bE>
    80203570:	fac43823          	sd	a2,-80(s0)
    80203574:	fac43c23          	sd	a2,-72(s0)
    80203578:	fb843603          	ld	a2,-72(s0)
    8020357c:	fcd43023          	sd	a3,-64(s0)
    80203580:	fc043683          	ld	a3,-64(s0)
    80203584:	e8d43023          	sd	a3,-384(s0)
    80203588:	e8c43423          	sd	a2,-376(s0)
    8020358c:	eab43023          	sd	a1,-352(s0)
    80203590:	ea040593          	addi	a1,s0,-352
    80203594:	fcb43423          	sd	a1,-56(s0)
    80203598:	fcb43823          	sd	a1,-48(s0)
    8020359c:	fca43c23          	sd	a0,-40(s0)
    802035a0:	fea43023          	sd	a0,-32(s0)
    802035a4:	fe043503          	ld	a0,-32(s0)
    802035a8:	feb43423          	sd	a1,-24(s0)
    802035ac:	fe843583          	ld	a1,-24(s0)
    802035b0:	e8b43823          	sd	a1,-368(s0)
    802035b4:	e8a43c23          	sd	a0,-360(s0)
    802035b8:	e7043583          	ld	a1,-400(s0)
    802035bc:	e7843503          	ld	a0,-392(s0)
    802035c0:	e4b43023          	sd	a1,-448(s0)
    802035c4:	e4a43423          	sd	a0,-440(s0)
    802035c8:	e8043583          	ld	a1,-384(s0)
    802035cc:	e8843503          	ld	a0,-376(s0)
    802035d0:	e4b43823          	sd	a1,-432(s0)
    802035d4:	e4a43c23          	sd	a0,-424(s0)
    802035d8:	e9043583          	ld	a1,-368(s0)
    802035dc:	e9843503          	ld	a0,-360(s0)
    802035e0:	e6b43023          	sd	a1,-416(s0)
    802035e4:	e6a43423          	sd	a0,-408(s0)

00000000802035e8 <.LBB0_16>:
    802035e8:	0002e597          	auipc	a1,0x2e
    802035ec:	c2058593          	addi	a1,a1,-992 # 80231208 <.L__unnamed_1>
    802035f0:	e1040513          	addi	a0,s0,-496
    802035f4:	dca43423          	sd	a0,-568(s0)
    802035f8:	e4040693          	addi	a3,s0,-448
    802035fc:	470d                	li	a4,3
    802035fe:	863a                	mv	a2,a4
    80203600:	0001a097          	auipc	ra,0x1a
    80203604:	db6080e7          	jalr	-586(ra) # 8021d3b6 <_ZN4core3fmt9Arguments6new_v117ha106a10382190265E>
    80203608:	dc843503          	ld	a0,-568(s0)

000000008020360c <.LBB0_17>:
    8020360c:	0002e597          	auipc	a1,0x2e
    80203610:	c2c58593          	addi	a1,a1,-980 # 80231238 <.L__unnamed_2>
    80203614:	0002a097          	auipc	ra,0x2a
    80203618:	36e080e7          	jalr	878(ra) # 8022d982 <_ZN4core9panicking9panic_fmt17hdc67c01c17e684eeE>
    8020361c:	0000                	unimp
    8020361e:	e0843503          	ld	a0,-504(s0)
    80203622:	4581                	li	a1,0
    80203624:	16b51c63          	bne	a0,a1,8020379c <.LBB0_18+0xa6>
    80203628:	b701                	j	80203528 <_ZN4core4char7methods15encode_utf8_raw17h4696cb03f80f4438E+0x8e>
    8020362a:	e0843583          	ld	a1,-504(s0)
    8020362e:	4505                	li	a0,1
    80203630:	12b56b63          	bltu	a0,a1,80203766 <.LBB0_18+0x70>
    80203634:	bdd5                	j	80203528 <_ZN4core4char7methods15encode_utf8_raw17h4696cb03f80f4438E+0x8e>
    80203636:	e0843583          	ld	a1,-504(s0)
    8020363a:	4509                	li	a0,2
    8020363c:	0cb56c63          	bltu	a0,a1,80203714 <.LBB0_18+0x1e>
    80203640:	b5e5                	j	80203528 <_ZN4core4char7methods15encode_utf8_raw17h4696cb03f80f4438E+0x8e>
    80203642:	e0843503          	ld	a0,-504(s0)
    80203646:	4591                	li	a1,4
    80203648:	eeb560e3          	bltu	a0,a1,80203528 <_ZN4core4char7methods15encode_utf8_raw17h4696cb03f80f4438E+0x8e>
    8020364c:	a009                	j	8020364e <.LBB0_17+0x42>
    8020364e:	e0043703          	ld	a4,-512(s0)
    80203652:	f0e43023          	sd	a4,-256(s0)
    80203656:	e0043683          	ld	a3,-512(s0)
    8020365a:	00168513          	addi	a0,a3,1
    8020365e:	f0a43423          	sd	a0,-248(s0)
    80203662:	e0043603          	ld	a2,-512(s0)
    80203666:	00260513          	addi	a0,a2,2
    8020366a:	f0a43823          	sd	a0,-240(s0)
    8020366e:	e0043583          	ld	a1,-512(s0)
    80203672:	00358513          	addi	a0,a1,3
    80203676:	f0a43c23          	sd	a0,-232(s0)
    8020367a:	dec42503          	lw	a0,-532(s0)
    8020367e:	152e                	slli	a0,a0,0x2b
    80203680:	9175                	srli	a0,a0,0x3d
    80203682:	0f056513          	ori	a0,a0,240
    80203686:	00a70023          	sb	a0,0(a4)
    8020368a:	dec42503          	lw	a0,-532(s0)
    8020368e:	153a                	slli	a0,a0,0x2e
    80203690:	9169                	srli	a0,a0,0x3a
    80203692:	08056513          	ori	a0,a0,128
    80203696:	00a680a3          	sb	a0,1(a3)
    8020369a:	dec42503          	lw	a0,-532(s0)
    8020369e:	1552                	slli	a0,a0,0x34
    802036a0:	9169                	srli	a0,a0,0x3a
    802036a2:	08056513          	ori	a0,a0,128
    802036a6:	00a60123          	sb	a0,2(a2)
    802036aa:	dec44503          	lbu	a0,-532(s0)
    802036ae:	03f57513          	andi	a0,a0,63
    802036b2:	08056513          	ori	a0,a0,128
    802036b6:	00a581a3          	sb	a0,3(a1)
    802036ba:	a009                	j	802036bc <.LBB0_17+0xb0>
    802036bc:	dd843683          	ld	a3,-552(s0)
    802036c0:	dd043603          	ld	a2,-560(s0)
    802036c4:	f4c43823          	sd	a2,-176(s0)
    802036c8:	f4d43c23          	sd	a3,-168(s0)
    802036cc:	df043503          	ld	a0,-528(s0)
    802036d0:	eaa43423          	sd	a0,-344(s0)
    802036d4:	ea843503          	ld	a0,-344(s0)
    802036d8:	f6a43023          	sd	a0,-160(s0)
    802036dc:	f6c43423          	sd	a2,-152(s0)
    802036e0:	f6d43823          	sd	a3,-144(s0)
    802036e4:	4581                	li	a1,0
    802036e6:	eab43823          	sd	a1,-336(s0)
    802036ea:	eaa43c23          	sd	a0,-328(s0)
    802036ee:	eb043503          	ld	a0,-336(s0)
    802036f2:	eb843583          	ld	a1,-328(s0)

00000000802036f6 <.LBB0_18>:
    802036f6:	0002e717          	auipc	a4,0x2e
    802036fa:	aba70713          	addi	a4,a4,-1350 # 802311b0 <.L__unnamed_3>
    802036fe:	00024097          	auipc	ra,0x24
    80203702:	728080e7          	jalr	1832(ra) # 80227e26 <_ZN106_$LT$core..ops..range..Range$LT$usize$GT$$u20$as$u20$core..slice..index..SliceIndex$LT$$u5b$T$u5d$$GT$$GT$9index_mut17hd5518d6ede79fe2cE>
    80203706:	23813083          	ld	ra,568(sp)
    8020370a:	23013403          	ld	s0,560(sp)
    8020370e:	24010113          	addi	sp,sp,576
    80203712:	8082                	ret
    80203714:	e0043683          	ld	a3,-512(s0)
    80203718:	f2d43023          	sd	a3,-224(s0)
    8020371c:	e0043603          	ld	a2,-512(s0)
    80203720:	00160513          	addi	a0,a2,1
    80203724:	f2a43423          	sd	a0,-216(s0)
    80203728:	e0043583          	ld	a1,-512(s0)
    8020372c:	00258513          	addi	a0,a1,2
    80203730:	f2a43823          	sd	a0,-208(s0)
    80203734:	dec42503          	lw	a0,-532(s0)
    80203738:	1542                	slli	a0,a0,0x30
    8020373a:	9171                	srli	a0,a0,0x3c
    8020373c:	0e056513          	ori	a0,a0,224
    80203740:	00a68023          	sb	a0,0(a3)
    80203744:	dec42503          	lw	a0,-532(s0)
    80203748:	1552                	slli	a0,a0,0x34
    8020374a:	9169                	srli	a0,a0,0x3a
    8020374c:	08056513          	ori	a0,a0,128
    80203750:	00a600a3          	sb	a0,1(a2)
    80203754:	dec44503          	lbu	a0,-532(s0)
    80203758:	03f57513          	andi	a0,a0,63
    8020375c:	08056513          	ori	a0,a0,128
    80203760:	00a58123          	sb	a0,2(a1)
    80203764:	bfa1                	j	802036bc <.LBB0_17+0xb0>
    80203766:	e0043603          	ld	a2,-512(s0)
    8020376a:	f2c43c23          	sd	a2,-200(s0)
    8020376e:	e0043583          	ld	a1,-512(s0)
    80203772:	00158513          	addi	a0,a1,1
    80203776:	f4a43023          	sd	a0,-192(s0)
    8020377a:	dec42503          	lw	a0,-532(s0)
    8020377e:	1556                	slli	a0,a0,0x35
    80203780:	916d                	srli	a0,a0,0x3b
    80203782:	0c056513          	ori	a0,a0,192
    80203786:	00a60023          	sb	a0,0(a2)
    8020378a:	dec44503          	lbu	a0,-532(s0)
    8020378e:	03f57513          	andi	a0,a0,63
    80203792:	08056513          	ori	a0,a0,128
    80203796:	00a580a3          	sb	a0,1(a1)
    8020379a:	b70d                	j	802036bc <.LBB0_17+0xb0>
    8020379c:	e0043583          	ld	a1,-512(s0)
    802037a0:	f4b43423          	sd	a1,-184(s0)
    802037a4:	dec40503          	lb	a0,-532(s0)
    802037a8:	00a58023          	sb	a0,0(a1)
    802037ac:	bf01                	j	802036bc <.LBB0_17+0xb0>

00000000802037ae <_ZN4core4char7methods8len_utf817he92f5dfd6c09bdb4E>:
    802037ae:	7179                	addi	sp,sp,-48
    802037b0:	f406                	sd	ra,40(sp)
    802037b2:	f022                	sd	s0,32(sp)
    802037b4:	1800                	addi	s0,sp,48
    802037b6:	85aa                	mv	a1,a0
    802037b8:	0005851b          	sext.w	a0,a1
    802037bc:	862e                	mv	a2,a1
    802037be:	fcc43c23          	sd	a2,-40(s0)
    802037c2:	feb42623          	sw	a1,-20(s0)
    802037c6:	08000593          	li	a1,128
    802037ca:	00b56b63          	bltu	a0,a1,802037e0 <_ZN4core4char7methods8len_utf817he92f5dfd6c09bdb4E+0x32>
    802037ce:	a009                	j	802037d0 <_ZN4core4char7methods8len_utf817he92f5dfd6c09bdb4E+0x22>
    802037d0:	fd843503          	ld	a0,-40(s0)
    802037d4:	00b5551b          	srliw	a0,a0,0xb
    802037d8:	4581                	li	a1,0
    802037da:	02b50563          	beq	a0,a1,80203804 <_ZN4core4char7methods8len_utf817he92f5dfd6c09bdb4E+0x56>
    802037de:	a819                	j	802037f4 <_ZN4core4char7methods8len_utf817he92f5dfd6c09bdb4E+0x46>
    802037e0:	4505                	li	a0,1
    802037e2:	fea43023          	sd	a0,-32(s0)
    802037e6:	a009                	j	802037e8 <_ZN4core4char7methods8len_utf817he92f5dfd6c09bdb4E+0x3a>
    802037e8:	fe043503          	ld	a0,-32(s0)
    802037ec:	70a2                	ld	ra,40(sp)
    802037ee:	7402                	ld	s0,32(sp)
    802037f0:	6145                	addi	sp,sp,48
    802037f2:	8082                	ret
    802037f4:	fd843503          	ld	a0,-40(s0)
    802037f8:	0105551b          	srliw	a0,a0,0x10
    802037fc:	4581                	li	a1,0
    802037fe:	00b50c63          	beq	a0,a1,80203816 <_ZN4core4char7methods8len_utf817he92f5dfd6c09bdb4E+0x68>
    80203802:	a031                	j	8020380e <_ZN4core4char7methods8len_utf817he92f5dfd6c09bdb4E+0x60>
    80203804:	4509                	li	a0,2
    80203806:	fea43023          	sd	a0,-32(s0)
    8020380a:	a009                	j	8020380c <_ZN4core4char7methods8len_utf817he92f5dfd6c09bdb4E+0x5e>
    8020380c:	bff1                	j	802037e8 <_ZN4core4char7methods8len_utf817he92f5dfd6c09bdb4E+0x3a>
    8020380e:	4511                	li	a0,4
    80203810:	fea43023          	sd	a0,-32(s0)
    80203814:	a029                	j	8020381e <_ZN4core4char7methods8len_utf817he92f5dfd6c09bdb4E+0x70>
    80203816:	450d                	li	a0,3
    80203818:	fea43023          	sd	a0,-32(s0)
    8020381c:	a009                	j	8020381e <_ZN4core4char7methods8len_utf817he92f5dfd6c09bdb4E+0x70>
    8020381e:	b7fd                	j	8020380c <_ZN4core4char7methods8len_utf817he92f5dfd6c09bdb4E+0x5e>

0000000080203820 <_ZN4core4cell16RefCell$LT$T$GT$10borrow_mut17h06ae39b05e7fde90E>:
    80203820:	715d                	addi	sp,sp,-80
    80203822:	e486                	sd	ra,72(sp)
    80203824:	e0a2                	sd	s0,64(sp)
    80203826:	0880                	addi	s0,sp,80
    80203828:	fab43c23          	sd	a1,-72(s0)
    8020382c:	fca43c23          	sd	a0,-40(s0)
    80203830:	00000097          	auipc	ra,0x0
    80203834:	062080e7          	jalr	98(ra) # 80203892 <_ZN4core4cell16RefCell$LT$T$GT$14try_borrow_mut17hf6c2af067a27402cE>
    80203838:	fcb43423          	sd	a1,-56(s0)
    8020383c:	fca43023          	sd	a0,-64(s0)

0000000080203840 <.LBB0_3>:
    80203840:	0002e517          	auipc	a0,0x2e
    80203844:	8e050513          	addi	a0,a0,-1824 # 80231120 <.L__unnamed_2+0xc0>
    80203848:	fea43023          	sd	a0,-32(s0)
    8020384c:	4541                	li	a0,16
    8020384e:	fea43423          	sd	a0,-24(s0)
    80203852:	fc043503          	ld	a0,-64(s0)
    80203856:	4581                	li	a1,0
    80203858:	00b50b63          	beq	a0,a1,8020386e <.LBB0_3+0x2e>
    8020385c:	a009                	j	8020385e <.LBB0_3+0x1e>
    8020385e:	fc043503          	ld	a0,-64(s0)
    80203862:	fc843583          	ld	a1,-56(s0)
    80203866:	60a6                	ld	ra,72(sp)
    80203868:	6406                	ld	s0,64(sp)
    8020386a:	6161                	addi	sp,sp,80
    8020386c:	8082                	ret
    8020386e:	fb843703          	ld	a4,-72(s0)

0000000080203872 <.LBB0_4>:
    80203872:	0002e517          	auipc	a0,0x2e
    80203876:	8ae50513          	addi	a0,a0,-1874 # 80231120 <.L__unnamed_2+0xc0>

000000008020387a <.LBB0_5>:
    8020387a:	0002e697          	auipc	a3,0x2e
    8020387e:	9d668693          	addi	a3,a3,-1578 # 80231250 <.L__unnamed_1>
    80203882:	45c1                	li	a1,16
    80203884:	fd040613          	addi	a2,s0,-48
    80203888:	0002a097          	auipc	ra,0x2a
    8020388c:	2c8080e7          	jalr	712(ra) # 8022db50 <_ZN4core6result13unwrap_failed17h1ccf3470a5333e86E>
	...

0000000080203892 <_ZN4core4cell16RefCell$LT$T$GT$14try_borrow_mut17hf6c2af067a27402cE>:
    80203892:	7159                	addi	sp,sp,-112
    80203894:	f486                	sd	ra,104(sp)
    80203896:	f0a2                	sd	s0,96(sp)
    80203898:	1880                	addi	s0,sp,112
    8020389a:	f8a43c23          	sd	a0,-104(s0)
    8020389e:	fca43823          	sd	a0,-48(s0)
    802038a2:	0001b097          	auipc	ra,0x1b
    802038a6:	76c080e7          	jalr	1900(ra) # 8021f00e <_ZN4core4cell12BorrowRefMut3new17h4011e13127496e67E>
    802038aa:	faa43823          	sd	a0,-80(s0)
    802038ae:	fb043503          	ld	a0,-80(s0)
    802038b2:	4581                	li	a1,0
    802038b4:	00b51763          	bne	a0,a1,802038c2 <_ZN4core4cell16RefCell$LT$T$GT$14try_borrow_mut17hf6c2af067a27402cE+0x30>
    802038b8:	a009                	j	802038ba <_ZN4core4cell16RefCell$LT$T$GT$14try_borrow_mut17hf6c2af067a27402cE+0x28>
    802038ba:	4501                	li	a0,0
    802038bc:	faa43023          	sd	a0,-96(s0)
    802038c0:	a82d                	j	802038fa <_ZN4core4cell16RefCell$LT$T$GT$14try_borrow_mut17hf6c2af067a27402cE+0x68>
    802038c2:	f9843583          	ld	a1,-104(s0)
    802038c6:	fb043503          	ld	a0,-80(s0)
    802038ca:	fca43c23          	sd	a0,-40(s0)
    802038ce:	05a1                	addi	a1,a1,8
    802038d0:	feb43023          	sd	a1,-32(s0)
    802038d4:	feb43423          	sd	a1,-24(s0)
    802038d8:	fab43c23          	sd	a1,-72(s0)
    802038dc:	fb843583          	ld	a1,-72(s0)
    802038e0:	fcb43023          	sd	a1,-64(s0)
    802038e4:	fca43423          	sd	a0,-56(s0)
    802038e8:	fc043583          	ld	a1,-64(s0)
    802038ec:	fc843503          	ld	a0,-56(s0)
    802038f0:	fab43023          	sd	a1,-96(s0)
    802038f4:	faa43423          	sd	a0,-88(s0)
    802038f8:	a009                	j	802038fa <_ZN4core4cell16RefCell$LT$T$GT$14try_borrow_mut17hf6c2af067a27402cE+0x68>
    802038fa:	fa043503          	ld	a0,-96(s0)
    802038fe:	fa843583          	ld	a1,-88(s0)
    80203902:	70a6                	ld	ra,104(sp)
    80203904:	7406                	ld	s0,96(sp)
    80203906:	6165                	addi	sp,sp,112
    80203908:	8082                	ret

000000008020390a <_ZN4core4cell16RefCell$LT$T$GT$3new17h58653e98043e95caE>:
    8020390a:	7135                	addi	sp,sp,-160
    8020390c:	ed06                	sd	ra,152(sp)
    8020390e:	e922                	sd	s0,144(sp)
    80203910:	1100                	addi	s0,sp,160
    80203912:	f6b43423          	sd	a1,-152(s0)
    80203916:	85aa                	mv	a1,a0
    80203918:	f6843503          	ld	a0,-152(s0)
    8020391c:	7110                	ld	a2,32(a0)
    8020391e:	fac43c23          	sd	a2,-72(s0)
    80203922:	6d10                	ld	a2,24(a0)
    80203924:	fac43823          	sd	a2,-80(s0)
    80203928:	6910                	ld	a2,16(a0)
    8020392a:	fac43423          	sd	a2,-88(s0)
    8020392e:	6510                	ld	a2,8(a0)
    80203930:	fac43023          	sd	a2,-96(s0)
    80203934:	6108                	ld	a0,0(a0)
    80203936:	f8a43c23          	sd	a0,-104(s0)
    8020393a:	fb843503          	ld	a0,-72(s0)
    8020393e:	fea43423          	sd	a0,-24(s0)
    80203942:	fb043503          	ld	a0,-80(s0)
    80203946:	fea43023          	sd	a0,-32(s0)
    8020394a:	fa843503          	ld	a0,-88(s0)
    8020394e:	fca43c23          	sd	a0,-40(s0)
    80203952:	fa043503          	ld	a0,-96(s0)
    80203956:	fca43823          	sd	a0,-48(s0)
    8020395a:	f9843503          	ld	a0,-104(s0)
    8020395e:	fca43423          	sd	a0,-56(s0)
    80203962:	fe843503          	ld	a0,-24(s0)
    80203966:	f8a43823          	sd	a0,-112(s0)
    8020396a:	fe043503          	ld	a0,-32(s0)
    8020396e:	f8a43423          	sd	a0,-120(s0)
    80203972:	fd843503          	ld	a0,-40(s0)
    80203976:	f8a43023          	sd	a0,-128(s0)
    8020397a:	fd043503          	ld	a0,-48(s0)
    8020397e:	f6a43c23          	sd	a0,-136(s0)
    80203982:	fc843503          	ld	a0,-56(s0)
    80203986:	f6a43823          	sd	a0,-144(s0)
    8020398a:	4501                	li	a0,0
    8020398c:	fca43023          	sd	a0,-64(s0)
    80203990:	fc043503          	ld	a0,-64(s0)
    80203994:	e188                	sd	a0,0(a1)
    80203996:	f9043503          	ld	a0,-112(s0)
    8020399a:	f588                	sd	a0,40(a1)
    8020399c:	f8843503          	ld	a0,-120(s0)
    802039a0:	f188                	sd	a0,32(a1)
    802039a2:	f8043503          	ld	a0,-128(s0)
    802039a6:	ed88                	sd	a0,24(a1)
    802039a8:	f7843503          	ld	a0,-136(s0)
    802039ac:	e988                	sd	a0,16(a1)
    802039ae:	f7043503          	ld	a0,-144(s0)
    802039b2:	e588                	sd	a0,8(a1)
    802039b4:	60ea                	ld	ra,152(sp)
    802039b6:	644a                	ld	s0,144(sp)
    802039b8:	610d                	addi	sp,sp,160
    802039ba:	8082                	ret

00000000802039bc <_ZN74_$LT$core..cell..RefMut$LT$T$GT$$u20$as$u20$core..ops..deref..DerefMut$GT$9deref_mut17hcbef18989e56c38cE>:
    802039bc:	7179                	addi	sp,sp,-48
    802039be:	f406                	sd	ra,40(sp)
    802039c0:	f022                	sd	s0,32(sp)
    802039c2:	1800                	addi	s0,sp,48
    802039c4:	fca43c23          	sd	a0,-40(s0)
    802039c8:	fea43023          	sd	a0,-32(s0)
    802039cc:	6108                	ld	a0,0(a0)
    802039ce:	fea43423          	sd	a0,-24(s0)
    802039d2:	70a2                	ld	ra,40(sp)
    802039d4:	7402                	ld	s0,32(sp)
    802039d6:	6145                	addi	sp,sp,48
    802039d8:	8082                	ret

00000000802039da <_ZN5riscv8register13hypervisorx645hgatp4read17hd2f7036841b49e86E>:
    802039da:	1101                	addi	sp,sp,-32
    802039dc:	ec06                	sd	ra,24(sp)
    802039de:	e822                	sd	s0,16(sp)
    802039e0:	1000                	addi	s0,sp,32
    802039e2:	00000097          	auipc	ra,0x0
    802039e6:	068080e7          	jalr	104(ra) # 80203a4a <_ZN5riscv8register13hypervisorx645hgatp5_read17hb1fa8b959d8ff11fE>
    802039ea:	fea43423          	sd	a0,-24(s0)
    802039ee:	fe843503          	ld	a0,-24(s0)
    802039f2:	60e2                	ld	ra,24(sp)
    802039f4:	6442                	ld	s0,16(sp)
    802039f6:	6105                	addi	sp,sp,32
    802039f8:	8082                	ret

00000000802039fa <_ZN5riscv8register13hypervisorx645hgatp5Hgatp4bits17hdbe4c441a9f08cd6E>:
    802039fa:	1101                	addi	sp,sp,-32
    802039fc:	ec06                	sd	ra,24(sp)
    802039fe:	e822                	sd	s0,16(sp)
    80203a00:	1000                	addi	s0,sp,32
    80203a02:	fea43423          	sd	a0,-24(s0)
    80203a06:	6108                	ld	a0,0(a0)
    80203a08:	60e2                	ld	ra,24(sp)
    80203a0a:	6442                	ld	s0,16(sp)
    80203a0c:	6105                	addi	sp,sp,32
    80203a0e:	8082                	ret

0000000080203a10 <_ZN5riscv8register13hypervisorx645hgatp5Hgatp5write17h4bcce97b12791eadE>:
    80203a10:	1101                	addi	sp,sp,-32
    80203a12:	ec06                	sd	ra,24(sp)
    80203a14:	e822                	sd	s0,16(sp)
    80203a16:	1000                	addi	s0,sp,32
    80203a18:	fea43423          	sd	a0,-24(s0)
    80203a1c:	6108                	ld	a0,0(a0)
    80203a1e:	00000097          	auipc	ra,0x0
    80203a22:	048080e7          	jalr	72(ra) # 80203a66 <_ZN5riscv8register13hypervisorx645hgatp6_write17hb6f0621f23bca510E>
    80203a26:	60e2                	ld	ra,24(sp)
    80203a28:	6442                	ld	s0,16(sp)
    80203a2a:	6105                	addi	sp,sp,32
    80203a2c:	8082                	ret

0000000080203a2e <_ZN5riscv8register13hypervisorx645hgatp5Hgatp9from_bits17hc8aa4e562ea8e83fE>:
    80203a2e:	1101                	addi	sp,sp,-32
    80203a30:	ec06                	sd	ra,24(sp)
    80203a32:	e822                	sd	s0,16(sp)
    80203a34:	1000                	addi	s0,sp,32
    80203a36:	fea43423          	sd	a0,-24(s0)
    80203a3a:	fea43023          	sd	a0,-32(s0)
    80203a3e:	fe043503          	ld	a0,-32(s0)
    80203a42:	60e2                	ld	ra,24(sp)
    80203a44:	6442                	ld	s0,16(sp)
    80203a46:	6105                	addi	sp,sp,32
    80203a48:	8082                	ret

0000000080203a4a <_ZN5riscv8register13hypervisorx645hgatp5_read17hb1fa8b959d8ff11fE>:
    80203a4a:	1101                	addi	sp,sp,-32
    80203a4c:	ec06                	sd	ra,24(sp)
    80203a4e:	e822                	sd	s0,16(sp)
    80203a50:	1000                	addi	s0,sp,32
    80203a52:	68002573          	csrr	a0,0x680
    80203a56:	fea43423          	sd	a0,-24(s0)
    80203a5a:	fe843503          	ld	a0,-24(s0)
    80203a5e:	60e2                	ld	ra,24(sp)
    80203a60:	6442                	ld	s0,16(sp)
    80203a62:	6105                	addi	sp,sp,32
    80203a64:	8082                	ret

0000000080203a66 <_ZN5riscv8register13hypervisorx645hgatp6_write17hb6f0621f23bca510E>:
    80203a66:	1101                	addi	sp,sp,-32
    80203a68:	ec06                	sd	ra,24(sp)
    80203a6a:	e822                	sd	s0,16(sp)
    80203a6c:	1000                	addi	s0,sp,32
    80203a6e:	fea43423          	sd	a0,-24(s0)
    80203a72:	68051073          	csrw	0x680,a0
    80203a76:	60e2                	ld	ra,24(sp)
    80203a78:	6442                	ld	s0,16(sp)
    80203a7a:	6105                	addi	sp,sp,32
    80203a7c:	8082                	ret

0000000080203a7e <_ZN4core5alloc6layout6Layout25from_size_align_unchecked17h2cfb22bf02c46af3E>:
    80203a7e:	715d                	addi	sp,sp,-80
    80203a80:	e486                	sd	ra,72(sp)
    80203a82:	e0a2                	sd	s0,64(sp)
    80203a84:	0880                	addi	s0,sp,80
    80203a86:	fab43c23          	sd	a1,-72(s0)
    80203a8a:	85aa                	mv	a1,a0
    80203a8c:	fb843503          	ld	a0,-72(s0)
    80203a90:	fcb43823          	sd	a1,-48(s0)
    80203a94:	fca43c23          	sd	a0,-40(s0)
    80203a98:	fea43023          	sd	a0,-32(s0)
    80203a9c:	fea43423          	sd	a0,-24(s0)
    80203aa0:	fe843503          	ld	a0,-24(s0)
    80203aa4:	fcb43023          	sd	a1,-64(s0)
    80203aa8:	fca43423          	sd	a0,-56(s0)
    80203aac:	fc043503          	ld	a0,-64(s0)
    80203ab0:	fc843583          	ld	a1,-56(s0)
    80203ab4:	60a6                	ld	ra,72(sp)
    80203ab6:	6406                	ld	s0,64(sp)
    80203ab8:	6161                	addi	sp,sp,80
    80203aba:	8082                	ret

0000000080203abc <_ZN4core5alloc6layout6Layout5array5inner17hdea3feabcee8d7a3E>:
    80203abc:	7131                	addi	sp,sp,-192
    80203abe:	fd06                	sd	ra,184(sp)
    80203ac0:	f922                	sd	s0,176(sp)
    80203ac2:	0180                	addi	s0,sp,192
    80203ac4:	f4c43423          	sd	a2,-184(s0)
    80203ac8:	f4b43823          	sd	a1,-176(s0)
    80203acc:	f4a43c23          	sd	a0,-168(s0)
    80203ad0:	f8a43c23          	sd	a0,-104(s0)
    80203ad4:	fab43023          	sd	a1,-96(s0)
    80203ad8:	fac43423          	sd	a2,-88(s0)
    80203adc:	4581                	li	a1,0
    80203ade:	00b51763          	bne	a0,a1,80203aec <_ZN4core5alloc6layout6Layout5array5inner17hdea3feabcee8d7a3E+0x30>
    80203ae2:	a009                	j	80203ae4 <_ZN4core5alloc6layout6Layout5array5inner17hdea3feabcee8d7a3E+0x28>
    80203ae4:	4501                	li	a0,0
    80203ae6:	f6a40ba3          	sb	a0,-137(s0)
    80203aea:	a08d                	j	80203b4c <.LBB1_10+0x14>
    80203aec:	f5843503          	ld	a0,-168(s0)
    80203af0:	f5043583          	ld	a1,-176(s0)
    80203af4:	fab43823          	sd	a1,-80(s0)
    80203af8:	fab43c23          	sd	a1,-72(s0)
    80203afc:	f8b43423          	sd	a1,-120(s0)
    80203b00:	f8843603          	ld	a2,-120(s0)
    80203b04:	55fd                	li	a1,-1
    80203b06:	15fe                	slli	a1,a1,0x3f
    80203b08:	8d91                	sub	a1,a1,a2
    80203b0a:	f4b43023          	sd	a1,-192(s0)
    80203b0e:	4581                	li	a1,0
    80203b10:	02b50063          	beq	a0,a1,80203b30 <.LBB1_9>
    80203b14:	a009                	j	80203b16 <_ZN4core5alloc6layout6Layout5array5inner17hdea3feabcee8d7a3E+0x5a>
    80203b16:	f4843583          	ld	a1,-184(s0)
    80203b1a:	f4043503          	ld	a0,-192(s0)
    80203b1e:	f5843603          	ld	a2,-168(s0)
    80203b22:	02c55533          	divu	a0,a0,a2
    80203b26:	00b53533          	sltu	a0,a0,a1
    80203b2a:	f6a40ba3          	sb	a0,-137(s0)
    80203b2e:	a839                	j	80203b4c <.LBB1_10+0x14>

0000000080203b30 <.LBB1_9>:
    80203b30:	0002d517          	auipc	a0,0x2d
    80203b34:	7b050513          	addi	a0,a0,1968 # 802312e0 <str.0>

0000000080203b38 <.LBB1_10>:
    80203b38:	0002d617          	auipc	a2,0x2d
    80203b3c:	78860613          	addi	a2,a2,1928 # 802312c0 <.L__unnamed_1>
    80203b40:	45e5                	li	a1,25
    80203b42:	0002a097          	auipc	ra,0x2a
    80203b46:	e6e080e7          	jalr	-402(ra) # 8022d9b0 <_ZN4core9panicking5panic17h0ed902ae04a4e669E>
    80203b4a:	0000                	unimp
    80203b4c:	f7744503          	lbu	a0,-137(s0)
    80203b50:	8905                	andi	a0,a0,1
    80203b52:	4581                	li	a1,0
    80203b54:	04b51a63          	bne	a0,a1,80203ba8 <.LBB1_10+0x70>
    80203b58:	a009                	j	80203b5a <.LBB1_10+0x22>
    80203b5a:	f5043503          	ld	a0,-176(s0)
    80203b5e:	f5843583          	ld	a1,-168(s0)
    80203b62:	f4843603          	ld	a2,-184(s0)
    80203b66:	02c585b3          	mul	a1,a1,a2
    80203b6a:	fcb43023          	sd	a1,-64(s0)
    80203b6e:	fcb43423          	sd	a1,-56(s0)
    80203b72:	fca43823          	sd	a0,-48(s0)
    80203b76:	f8a43823          	sd	a0,-112(s0)
    80203b7a:	f9043503          	ld	a0,-112(s0)
    80203b7e:	fca43c23          	sd	a0,-40(s0)
    80203b82:	fea43023          	sd	a0,-32(s0)
    80203b86:	fea43423          	sd	a0,-24(s0)
    80203b8a:	fe843503          	ld	a0,-24(s0)
    80203b8e:	f6b43c23          	sd	a1,-136(s0)
    80203b92:	f8a43023          	sd	a0,-128(s0)
    80203b96:	f7843583          	ld	a1,-136(s0)
    80203b9a:	f8043503          	ld	a0,-128(s0)
    80203b9e:	f6b43023          	sd	a1,-160(s0)
    80203ba2:	f6a43423          	sd	a0,-152(s0)
    80203ba6:	a029                	j	80203bb0 <.LBB1_10+0x78>
    80203ba8:	4501                	li	a0,0
    80203baa:	f6a43423          	sd	a0,-152(s0)
    80203bae:	a009                	j	80203bb0 <.LBB1_10+0x78>
    80203bb0:	f6043503          	ld	a0,-160(s0)
    80203bb4:	f6843583          	ld	a1,-152(s0)
    80203bb8:	70ea                	ld	ra,184(sp)
    80203bba:	744a                	ld	s0,176(sp)
    80203bbc:	6129                	addi	sp,sp,192
    80203bbe:	8082                	ret

0000000080203bc0 <_ZN4core6option15Option$LT$T$GT$14unwrap_or_else17hc5e1d2fb0669d50aE>:
    80203bc0:	7139                	addi	sp,sp,-64
    80203bc2:	fc06                	sd	ra,56(sp)
    80203bc4:	f822                	sd	s0,48(sp)
    80203bc6:	0080                	addi	s0,sp,64
    80203bc8:	fca43423          	sd	a0,-56(s0)
    80203bcc:	4505                	li	a0,1
    80203bce:	fca40fa3          	sb	a0,-33(s0)
    80203bd2:	fc843503          	ld	a0,-56(s0)
    80203bd6:	4581                	li	a1,0
    80203bd8:	00b51d63          	bne	a0,a1,80203bf2 <_ZN4core6option15Option$LT$T$GT$14unwrap_or_else17hc5e1d2fb0669d50aE+0x32>
    80203bdc:	a009                	j	80203bde <_ZN4core6option15Option$LT$T$GT$14unwrap_or_else17hc5e1d2fb0669d50aE+0x1e>
    80203bde:	4501                	li	a0,0
    80203be0:	fca40fa3          	sb	a0,-33(s0)
    80203be4:	00008097          	auipc	ra,0x8
    80203be8:	7d6080e7          	jalr	2006(ra) # 8020c3ba <_ZN4spin4once17Once$LT$T$C$R$GT$13try_call_once28_$u7b$$u7b$closure$u7d$$u7d$17h5202080295027574E>
    80203bec:	fca43823          	sd	a0,-48(s0)
    80203bf0:	a801                	j	80203c00 <_ZN4core6option15Option$LT$T$GT$14unwrap_or_else17hc5e1d2fb0669d50aE+0x40>
    80203bf2:	fc843503          	ld	a0,-56(s0)
    80203bf6:	fea43423          	sd	a0,-24(s0)
    80203bfa:	fca43823          	sd	a0,-48(s0)
    80203bfe:	a009                	j	80203c00 <_ZN4core6option15Option$LT$T$GT$14unwrap_or_else17hc5e1d2fb0669d50aE+0x40>
    80203c00:	fdf44503          	lbu	a0,-33(s0)
    80203c04:	8905                	andi	a0,a0,1
    80203c06:	4581                	li	a1,0
    80203c08:	00b51963          	bne	a0,a1,80203c1a <_ZN4core6option15Option$LT$T$GT$14unwrap_or_else17hc5e1d2fb0669d50aE+0x5a>
    80203c0c:	a009                	j	80203c0e <_ZN4core6option15Option$LT$T$GT$14unwrap_or_else17hc5e1d2fb0669d50aE+0x4e>
    80203c0e:	fd043503          	ld	a0,-48(s0)
    80203c12:	70e2                	ld	ra,56(sp)
    80203c14:	7442                	ld	s0,48(sp)
    80203c16:	6121                	addi	sp,sp,64
    80203c18:	8082                	ret
    80203c1a:	bfd5                	j	80203c0e <_ZN4core6option15Option$LT$T$GT$14unwrap_or_else17hc5e1d2fb0669d50aE+0x4e>

0000000080203c1c <_ZN4core6option15Option$LT$T$GT$3map17h57bcf298e3e27cc4E>:
    80203c1c:	7159                	addi	sp,sp,-112
    80203c1e:	f486                	sd	ra,104(sp)
    80203c20:	f0a2                	sd	s0,96(sp)
    80203c22:	1880                	addi	s0,sp,112
    80203c24:	f8d43823          	sd	a3,-112(s0)
    80203c28:	f8c43c23          	sd	a2,-104(s0)
    80203c2c:	faa43023          	sd	a0,-96(s0)
    80203c30:	fab43423          	sd	a1,-88(s0)
    80203c34:	fcc43c23          	sd	a2,-40(s0)
    80203c38:	fed43023          	sd	a3,-32(s0)
    80203c3c:	4505                	li	a0,1
    80203c3e:	fca40ba3          	sb	a0,-41(s0)
    80203c42:	fa843503          	ld	a0,-88(s0)
    80203c46:	4581                	li	a1,0
    80203c48:	00b51863          	bne	a0,a1,80203c58 <_ZN4core6option15Option$LT$T$GT$3map17h57bcf298e3e27cc4E+0x3c>
    80203c4c:	a009                	j	80203c4e <_ZN4core6option15Option$LT$T$GT$3map17h57bcf298e3e27cc4E+0x32>
    80203c4e:	fa043583          	ld	a1,-96(s0)
    80203c52:	4501                	li	a0,0
    80203c54:	e588                	sd	a0,8(a1)
    80203c56:	a091                	j	80203c9a <_ZN4core6option15Option$LT$T$GT$3map17h57bcf298e3e27cc4E+0x7e>
    80203c58:	f9043603          	ld	a2,-112(s0)
    80203c5c:	f9843583          	ld	a1,-104(s0)
    80203c60:	fa843503          	ld	a0,-88(s0)
    80203c64:	fea43423          	sd	a0,-24(s0)
    80203c68:	4681                	li	a3,0
    80203c6a:	fcd40ba3          	sb	a3,-41(s0)
    80203c6e:	fca43423          	sd	a0,-56(s0)
    80203c72:	fc843683          	ld	a3,-56(s0)
    80203c76:	fb040513          	addi	a0,s0,-80
    80203c7a:	00010097          	auipc	ra,0x10
    80203c7e:	31e080e7          	jalr	798(ra) # 80213f98 <_ZN5alloc11collections5btree4node40NodeRef$LT$BorrowType$C$K$C$V$C$Type$GT$6ascend28_$u7b$$u7b$closure$u7d$$u7d$17hbd9ced131fd6994bE>
    80203c82:	fa043583          	ld	a1,-96(s0)
    80203c86:	fc043503          	ld	a0,-64(s0)
    80203c8a:	e988                	sd	a0,16(a1)
    80203c8c:	fb843503          	ld	a0,-72(s0)
    80203c90:	e588                	sd	a0,8(a1)
    80203c92:	fb043503          	ld	a0,-80(s0)
    80203c96:	e188                	sd	a0,0(a1)
    80203c98:	a009                	j	80203c9a <_ZN4core6option15Option$LT$T$GT$3map17h57bcf298e3e27cc4E+0x7e>
    80203c9a:	fd744503          	lbu	a0,-41(s0)
    80203c9e:	8905                	andi	a0,a0,1
    80203ca0:	4581                	li	a1,0
    80203ca2:	00b51763          	bne	a0,a1,80203cb0 <_ZN4core6option15Option$LT$T$GT$3map17h57bcf298e3e27cc4E+0x94>
    80203ca6:	a009                	j	80203ca8 <_ZN4core6option15Option$LT$T$GT$3map17h57bcf298e3e27cc4E+0x8c>
    80203ca8:	70a6                	ld	ra,104(sp)
    80203caa:	7406                	ld	s0,96(sp)
    80203cac:	6165                	addi	sp,sp,112
    80203cae:	8082                	ret
    80203cb0:	bfe5                	j	80203ca8 <_ZN4core6option15Option$LT$T$GT$3map17h57bcf298e3e27cc4E+0x8c>

0000000080203cb2 <_ZN4core6option15Option$LT$T$GT$3map17h5ab0cf9bd0ff2b1fE>:
    80203cb2:	7155                	addi	sp,sp,-208
    80203cb4:	e586                	sd	ra,200(sp)
    80203cb6:	e1a2                	sd	s0,192(sp)
    80203cb8:	0980                	addi	s0,sp,208
    80203cba:	f2b43823          	sd	a1,-208(s0)
    80203cbe:	f2a43c23          	sd	a0,-200(s0)
    80203cc2:	4505                	li	a0,1
    80203cc4:	fea403a3          	sb	a0,-25(s0)
    80203cc8:	6988                	ld	a0,16(a1)
    80203cca:	4581                	li	a1,0
    80203ccc:	00b51963          	bne	a0,a1,80203cde <_ZN4core6option15Option$LT$T$GT$3map17h5ab0cf9bd0ff2b1fE+0x2c>
    80203cd0:	a009                	j	80203cd2 <_ZN4core6option15Option$LT$T$GT$3map17h5ab0cf9bd0ff2b1fE+0x20>
    80203cd2:	f3843583          	ld	a1,-200(s0)
    80203cd6:	450d                	li	a0,3
    80203cd8:	02a58c23          	sb	a0,56(a1)
    80203cdc:	a06d                	j	80203d86 <_ZN4core6option15Option$LT$T$GT$3map17h5ab0cf9bd0ff2b1fE+0xd4>
    80203cde:	f3043503          	ld	a0,-208(s0)
    80203ce2:	6d0c                	ld	a1,24(a0)
    80203ce4:	f4b43c23          	sd	a1,-168(s0)
    80203ce8:	690c                	ld	a1,16(a0)
    80203cea:	f4b43823          	sd	a1,-176(s0)
    80203cee:	650c                	ld	a1,8(a0)
    80203cf0:	f4b43423          	sd	a1,-184(s0)
    80203cf4:	6108                	ld	a0,0(a0)
    80203cf6:	f4a43023          	sd	a0,-192(s0)
    80203cfa:	4501                	li	a0,0
    80203cfc:	fea403a3          	sb	a0,-25(s0)
    80203d00:	f5843503          	ld	a0,-168(s0)
    80203d04:	fca43c23          	sd	a0,-40(s0)
    80203d08:	f5043503          	ld	a0,-176(s0)
    80203d0c:	fca43823          	sd	a0,-48(s0)
    80203d10:	f4843503          	ld	a0,-184(s0)
    80203d14:	fca43423          	sd	a0,-56(s0)
    80203d18:	f4043503          	ld	a0,-192(s0)
    80203d1c:	fca43023          	sd	a0,-64(s0)
    80203d20:	fd843503          	ld	a0,-40(s0)
    80203d24:	faa43c23          	sd	a0,-72(s0)
    80203d28:	fd043503          	ld	a0,-48(s0)
    80203d2c:	faa43823          	sd	a0,-80(s0)
    80203d30:	fc843503          	ld	a0,-56(s0)
    80203d34:	faa43423          	sd	a0,-88(s0)
    80203d38:	fc043503          	ld	a0,-64(s0)
    80203d3c:	faa43023          	sd	a0,-96(s0)
    80203d40:	f6040513          	addi	a0,s0,-160
    80203d44:	fa040593          	addi	a1,s0,-96
    80203d48:	00001097          	auipc	ra,0x1
    80203d4c:	45e080e7          	jalr	1118(ra) # 802051a6 <_ZN11hypocaust_210page_table18translate_guest_va28_$u7b$$u7b$closure$u7d$$u7d$17h477df4efd4ebf107E>
    80203d50:	f3843583          	ld	a1,-200(s0)
    80203d54:	f9843503          	ld	a0,-104(s0)
    80203d58:	fd88                	sd	a0,56(a1)
    80203d5a:	f9043503          	ld	a0,-112(s0)
    80203d5e:	f988                	sd	a0,48(a1)
    80203d60:	f8843503          	ld	a0,-120(s0)
    80203d64:	f588                	sd	a0,40(a1)
    80203d66:	f8043503          	ld	a0,-128(s0)
    80203d6a:	f188                	sd	a0,32(a1)
    80203d6c:	f7843503          	ld	a0,-136(s0)
    80203d70:	ed88                	sd	a0,24(a1)
    80203d72:	f7043503          	ld	a0,-144(s0)
    80203d76:	e988                	sd	a0,16(a1)
    80203d78:	f6843503          	ld	a0,-152(s0)
    80203d7c:	e588                	sd	a0,8(a1)
    80203d7e:	f6043503          	ld	a0,-160(s0)
    80203d82:	e188                	sd	a0,0(a1)
    80203d84:	a009                	j	80203d86 <_ZN4core6option15Option$LT$T$GT$3map17h5ab0cf9bd0ff2b1fE+0xd4>
    80203d86:	fe744503          	lbu	a0,-25(s0)
    80203d8a:	8905                	andi	a0,a0,1
    80203d8c:	4581                	li	a1,0
    80203d8e:	00b51763          	bne	a0,a1,80203d9c <_ZN4core6option15Option$LT$T$GT$3map17h5ab0cf9bd0ff2b1fE+0xea>
    80203d92:	a009                	j	80203d94 <_ZN4core6option15Option$LT$T$GT$3map17h5ab0cf9bd0ff2b1fE+0xe2>
    80203d94:	60ae                	ld	ra,200(sp)
    80203d96:	640e                	ld	s0,192(sp)
    80203d98:	6169                	addi	sp,sp,208
    80203d9a:	8082                	ret
    80203d9c:	bfe5                	j	80203d94 <_ZN4core6option15Option$LT$T$GT$3map17h5ab0cf9bd0ff2b1fE+0xe2>

0000000080203d9e <_ZN4core6option15Option$LT$T$GT$3map17h77c74b8478d2d5f2E>:
    80203d9e:	7159                	addi	sp,sp,-112
    80203da0:	f486                	sd	ra,104(sp)
    80203da2:	f0a2                	sd	s0,96(sp)
    80203da4:	1880                	addi	s0,sp,112
    80203da6:	f8d43823          	sd	a3,-112(s0)
    80203daa:	f8c43c23          	sd	a2,-104(s0)
    80203dae:	faa43023          	sd	a0,-96(s0)
    80203db2:	fab43423          	sd	a1,-88(s0)
    80203db6:	fcc43c23          	sd	a2,-40(s0)
    80203dba:	fed43023          	sd	a3,-32(s0)
    80203dbe:	4505                	li	a0,1
    80203dc0:	fca40ba3          	sb	a0,-41(s0)
    80203dc4:	fa843503          	ld	a0,-88(s0)
    80203dc8:	4581                	li	a1,0
    80203dca:	00b51863          	bne	a0,a1,80203dda <_ZN4core6option15Option$LT$T$GT$3map17h77c74b8478d2d5f2E+0x3c>
    80203dce:	a009                	j	80203dd0 <_ZN4core6option15Option$LT$T$GT$3map17h77c74b8478d2d5f2E+0x32>
    80203dd0:	fa043583          	ld	a1,-96(s0)
    80203dd4:	4501                	li	a0,0
    80203dd6:	e588                	sd	a0,8(a1)
    80203dd8:	a091                	j	80203e1c <_ZN4core6option15Option$LT$T$GT$3map17h77c74b8478d2d5f2E+0x7e>
    80203dda:	f9043603          	ld	a2,-112(s0)
    80203dde:	f9843583          	ld	a1,-104(s0)
    80203de2:	fa843503          	ld	a0,-88(s0)
    80203de6:	fea43423          	sd	a0,-24(s0)
    80203dea:	4681                	li	a3,0
    80203dec:	fcd40ba3          	sb	a3,-41(s0)
    80203df0:	fca43423          	sd	a0,-56(s0)
    80203df4:	fc843683          	ld	a3,-56(s0)
    80203df8:	fb040513          	addi	a0,s0,-80
    80203dfc:	00010097          	auipc	ra,0x10
    80203e00:	146080e7          	jalr	326(ra) # 80213f42 <_ZN5alloc11collections5btree4node40NodeRef$LT$BorrowType$C$K$C$V$C$Type$GT$6ascend28_$u7b$$u7b$closure$u7d$$u7d$17h4f1173c23b65c858E>
    80203e04:	fa043583          	ld	a1,-96(s0)
    80203e08:	fc043503          	ld	a0,-64(s0)
    80203e0c:	e988                	sd	a0,16(a1)
    80203e0e:	fb843503          	ld	a0,-72(s0)
    80203e12:	e588                	sd	a0,8(a1)
    80203e14:	fb043503          	ld	a0,-80(s0)
    80203e18:	e188                	sd	a0,0(a1)
    80203e1a:	a009                	j	80203e1c <_ZN4core6option15Option$LT$T$GT$3map17h77c74b8478d2d5f2E+0x7e>
    80203e1c:	fd744503          	lbu	a0,-41(s0)
    80203e20:	8905                	andi	a0,a0,1
    80203e22:	4581                	li	a1,0
    80203e24:	00b51763          	bne	a0,a1,80203e32 <_ZN4core6option15Option$LT$T$GT$3map17h77c74b8478d2d5f2E+0x94>
    80203e28:	a009                	j	80203e2a <_ZN4core6option15Option$LT$T$GT$3map17h77c74b8478d2d5f2E+0x8c>
    80203e2a:	70a6                	ld	ra,104(sp)
    80203e2c:	7406                	ld	s0,96(sp)
    80203e2e:	6165                	addi	sp,sp,112
    80203e30:	8082                	ret
    80203e32:	bfe5                	j	80203e2a <_ZN4core6option15Option$LT$T$GT$3map17h77c74b8478d2d5f2E+0x8c>

0000000080203e34 <_ZN4core6option15Option$LT$T$GT$3map17h9611374365623f35E>:
    80203e34:	715d                	addi	sp,sp,-80
    80203e36:	e486                	sd	ra,72(sp)
    80203e38:	e0a2                	sd	s0,64(sp)
    80203e3a:	0880                	addi	s0,sp,80
    80203e3c:	faa43823          	sd	a0,-80(s0)
    80203e40:	fab43c23          	sd	a1,-72(s0)
    80203e44:	4505                	li	a0,1
    80203e46:	fca40ba3          	sb	a0,-41(s0)
    80203e4a:	fb843503          	ld	a0,-72(s0)
    80203e4e:	4581                	li	a1,0
    80203e50:	00b51863          	bne	a0,a1,80203e60 <_ZN4core6option15Option$LT$T$GT$3map17h9611374365623f35E+0x2c>
    80203e54:	a009                	j	80203e56 <_ZN4core6option15Option$LT$T$GT$3map17h9611374365623f35E+0x22>
    80203e56:	fb043583          	ld	a1,-80(s0)
    80203e5a:	4501                	li	a0,0
    80203e5c:	e188                	sd	a0,0(a1)
    80203e5e:	a835                	j	80203e9a <_ZN4core6option15Option$LT$T$GT$3map17h9611374365623f35E+0x66>
    80203e60:	fb843503          	ld	a0,-72(s0)
    80203e64:	fea43023          	sd	a0,-32(s0)
    80203e68:	4581                	li	a1,0
    80203e6a:	fcb40ba3          	sb	a1,-41(s0)
    80203e6e:	fca43423          	sd	a0,-56(s0)
    80203e72:	fc843503          	ld	a0,-56(s0)
    80203e76:	00008097          	auipc	ra,0x8
    80203e7a:	a4a080e7          	jalr	-1462(ra) # 8020b8c0 <_ZN99_$LT$hypocaust_2..page_table..sv39..PageTableSv39$u20$as$u20$hypocaust_2..page_table..PageTable$GT$9translate28_$u7b$$u7b$closure$u7d$$u7d$17h65b0bc0f0c30c85bE>
    80203e7e:	fb043583          	ld	a1,-80(s0)
    80203e82:	fea43423          	sd	a0,-24(s0)
    80203e86:	fe843503          	ld	a0,-24(s0)
    80203e8a:	fca43023          	sd	a0,-64(s0)
    80203e8e:	fc043503          	ld	a0,-64(s0)
    80203e92:	e588                	sd	a0,8(a1)
    80203e94:	4505                	li	a0,1
    80203e96:	e188                	sd	a0,0(a1)
    80203e98:	a009                	j	80203e9a <_ZN4core6option15Option$LT$T$GT$3map17h9611374365623f35E+0x66>
    80203e9a:	fd744503          	lbu	a0,-41(s0)
    80203e9e:	8905                	andi	a0,a0,1
    80203ea0:	4581                	li	a1,0
    80203ea2:	00b51763          	bne	a0,a1,80203eb0 <_ZN4core6option15Option$LT$T$GT$3map17h9611374365623f35E+0x7c>
    80203ea6:	a009                	j	80203ea8 <_ZN4core6option15Option$LT$T$GT$3map17h9611374365623f35E+0x74>
    80203ea8:	60a6                	ld	ra,72(sp)
    80203eaa:	6406                	ld	s0,64(sp)
    80203eac:	6161                	addi	sp,sp,80
    80203eae:	8082                	ret
    80203eb0:	bfe5                	j	80203ea8 <_ZN4core6option15Option$LT$T$GT$3map17h9611374365623f35E+0x74>

0000000080203eb2 <_ZN4core6option15Option$LT$T$GT$3map17ha46a478cd13d1edaE>:
    80203eb2:	715d                	addi	sp,sp,-80
    80203eb4:	e486                	sd	ra,72(sp)
    80203eb6:	e0a2                	sd	s0,64(sp)
    80203eb8:	0880                	addi	s0,sp,80
    80203eba:	faa43823          	sd	a0,-80(s0)
    80203ebe:	fab43c23          	sd	a1,-72(s0)
    80203ec2:	4505                	li	a0,1
    80203ec4:	fca40fa3          	sb	a0,-33(s0)
    80203ec8:	fb043503          	ld	a0,-80(s0)
    80203ecc:	4581                	li	a1,0
    80203ece:	00b51763          	bne	a0,a1,80203edc <_ZN4core6option15Option$LT$T$GT$3map17ha46a478cd13d1edaE+0x2a>
    80203ed2:	a009                	j	80203ed4 <_ZN4core6option15Option$LT$T$GT$3map17ha46a478cd13d1edaE+0x22>
    80203ed4:	4501                	li	a0,0
    80203ed6:	fca43023          	sd	a0,-64(s0)
    80203eda:	a035                	j	80203f06 <_ZN4core6option15Option$LT$T$GT$3map17ha46a478cd13d1edaE+0x54>
    80203edc:	fb843503          	ld	a0,-72(s0)
    80203ee0:	fea43423          	sd	a0,-24(s0)
    80203ee4:	4581                	li	a1,0
    80203ee6:	fcb40fa3          	sb	a1,-33(s0)
    80203eea:	fca43823          	sd	a0,-48(s0)
    80203eee:	fd043503          	ld	a0,-48(s0)
    80203ef2:	00016097          	auipc	ra,0x16
    80203ef6:	254080e7          	jalr	596(ra) # 8021a146 <_ZN4core3ops8function6FnOnce9call_once17h283e392e698d06f3E>
    80203efa:	fca43423          	sd	a0,-56(s0)
    80203efe:	4505                	li	a0,1
    80203f00:	fca43023          	sd	a0,-64(s0)
    80203f04:	a009                	j	80203f06 <_ZN4core6option15Option$LT$T$GT$3map17ha46a478cd13d1edaE+0x54>
    80203f06:	fdf44503          	lbu	a0,-33(s0)
    80203f0a:	8905                	andi	a0,a0,1
    80203f0c:	4581                	li	a1,0
    80203f0e:	00b51b63          	bne	a0,a1,80203f24 <_ZN4core6option15Option$LT$T$GT$3map17ha46a478cd13d1edaE+0x72>
    80203f12:	a009                	j	80203f14 <_ZN4core6option15Option$LT$T$GT$3map17ha46a478cd13d1edaE+0x62>
    80203f14:	fc043503          	ld	a0,-64(s0)
    80203f18:	fc843583          	ld	a1,-56(s0)
    80203f1c:	60a6                	ld	ra,72(sp)
    80203f1e:	6406                	ld	s0,64(sp)
    80203f20:	6161                	addi	sp,sp,80
    80203f22:	8082                	ret
    80203f24:	bfc5                	j	80203f14 <_ZN4core6option15Option$LT$T$GT$3map17ha46a478cd13d1edaE+0x62>

0000000080203f26 <_ZN4core6option15Option$LT$T$GT$3map17hc1622eac3d6decabE>:
    80203f26:	7159                	addi	sp,sp,-112
    80203f28:	f486                	sd	ra,104(sp)
    80203f2a:	f0a2                	sd	s0,96(sp)
    80203f2c:	1880                	addi	s0,sp,112
    80203f2e:	f8d43823          	sd	a3,-112(s0)
    80203f32:	f8c43c23          	sd	a2,-104(s0)
    80203f36:	faa43023          	sd	a0,-96(s0)
    80203f3a:	fab43423          	sd	a1,-88(s0)
    80203f3e:	fcc43c23          	sd	a2,-40(s0)
    80203f42:	fed43023          	sd	a3,-32(s0)
    80203f46:	4505                	li	a0,1
    80203f48:	fca40ba3          	sb	a0,-41(s0)
    80203f4c:	fa843503          	ld	a0,-88(s0)
    80203f50:	4581                	li	a1,0
    80203f52:	00b51863          	bne	a0,a1,80203f62 <_ZN4core6option15Option$LT$T$GT$3map17hc1622eac3d6decabE+0x3c>
    80203f56:	a009                	j	80203f58 <_ZN4core6option15Option$LT$T$GT$3map17hc1622eac3d6decabE+0x32>
    80203f58:	fa043583          	ld	a1,-96(s0)
    80203f5c:	4501                	li	a0,0
    80203f5e:	e588                	sd	a0,8(a1)
    80203f60:	a091                	j	80203fa4 <_ZN4core6option15Option$LT$T$GT$3map17hc1622eac3d6decabE+0x7e>
    80203f62:	f9043603          	ld	a2,-112(s0)
    80203f66:	f9843583          	ld	a1,-104(s0)
    80203f6a:	fa843503          	ld	a0,-88(s0)
    80203f6e:	fea43423          	sd	a0,-24(s0)
    80203f72:	4681                	li	a3,0
    80203f74:	fcd40ba3          	sb	a3,-41(s0)
    80203f78:	fca43423          	sd	a0,-56(s0)
    80203f7c:	fc843683          	ld	a3,-56(s0)
    80203f80:	fb040513          	addi	a0,s0,-80
    80203f84:	00010097          	auipc	ra,0x10
    80203f88:	f68080e7          	jalr	-152(ra) # 80213eec <_ZN5alloc11collections5btree4node40NodeRef$LT$BorrowType$C$K$C$V$C$Type$GT$6ascend28_$u7b$$u7b$closure$u7d$$u7d$17h0a33f3aadaa92adbE>
    80203f8c:	fa043583          	ld	a1,-96(s0)
    80203f90:	fc043503          	ld	a0,-64(s0)
    80203f94:	e988                	sd	a0,16(a1)
    80203f96:	fb843503          	ld	a0,-72(s0)
    80203f9a:	e588                	sd	a0,8(a1)
    80203f9c:	fb043503          	ld	a0,-80(s0)
    80203fa0:	e188                	sd	a0,0(a1)
    80203fa2:	a009                	j	80203fa4 <_ZN4core6option15Option$LT$T$GT$3map17hc1622eac3d6decabE+0x7e>
    80203fa4:	fd744503          	lbu	a0,-41(s0)
    80203fa8:	8905                	andi	a0,a0,1
    80203faa:	4581                	li	a1,0
    80203fac:	00b51763          	bne	a0,a1,80203fba <_ZN4core6option15Option$LT$T$GT$3map17hc1622eac3d6decabE+0x94>
    80203fb0:	a009                	j	80203fb2 <_ZN4core6option15Option$LT$T$GT$3map17hc1622eac3d6decabE+0x8c>
    80203fb2:	70a6                	ld	ra,104(sp)
    80203fb4:	7406                	ld	s0,96(sp)
    80203fb6:	6165                	addi	sp,sp,112
    80203fb8:	8082                	ret
    80203fba:	bfe5                	j	80203fb2 <_ZN4core6option15Option$LT$T$GT$3map17hc1622eac3d6decabE+0x8c>

0000000080203fbc <_ZN4core6option15Option$LT$T$GT$6as_ref17he1b2ee8dfaf99089E>:
    80203fbc:	7179                	addi	sp,sp,-48
    80203fbe:	f406                	sd	ra,40(sp)
    80203fc0:	f022                	sd	s0,32(sp)
    80203fc2:	1800                	addi	s0,sp,48
    80203fc4:	fca43823          	sd	a0,-48(s0)
    80203fc8:	fea43023          	sd	a0,-32(s0)
    80203fcc:	6108                	ld	a0,0(a0)
    80203fce:	4581                	li	a1,0
    80203fd0:	00b51763          	bne	a0,a1,80203fde <_ZN4core6option15Option$LT$T$GT$6as_ref17he1b2ee8dfaf99089E+0x22>
    80203fd4:	a009                	j	80203fd6 <_ZN4core6option15Option$LT$T$GT$6as_ref17he1b2ee8dfaf99089E+0x1a>
    80203fd6:	4501                	li	a0,0
    80203fd8:	fca43c23          	sd	a0,-40(s0)
    80203fdc:	a809                	j	80203fee <_ZN4core6option15Option$LT$T$GT$6as_ref17he1b2ee8dfaf99089E+0x32>
    80203fde:	fd043503          	ld	a0,-48(s0)
    80203fe2:	0521                	addi	a0,a0,8
    80203fe4:	fea43423          	sd	a0,-24(s0)
    80203fe8:	fca43c23          	sd	a0,-40(s0)
    80203fec:	a009                	j	80203fee <_ZN4core6option15Option$LT$T$GT$6as_ref17he1b2ee8dfaf99089E+0x32>
    80203fee:	fd843503          	ld	a0,-40(s0)
    80203ff2:	70a2                	ld	ra,40(sp)
    80203ff4:	7402                	ld	s0,32(sp)
    80203ff6:	6145                	addi	sp,sp,48
    80203ff8:	8082                	ret

0000000080203ffa <_ZN4core6option15Option$LT$T$GT$6unwrap17h0c387104866985fdE>:
    80203ffa:	7179                	addi	sp,sp,-48
    80203ffc:	f406                	sd	ra,40(sp)
    80203ffe:	f022                	sd	s0,32(sp)
    80204000:	1800                	addi	s0,sp,48
    80204002:	fcb43c23          	sd	a1,-40(s0)
    80204006:	fea43023          	sd	a0,-32(s0)
    8020400a:	6108                	ld	a0,0(a0)
    8020400c:	4581                	li	a1,0
    8020400e:	02b51063          	bne	a0,a1,8020402e <.LBB9_3+0x16>
    80204012:	a009                	j	80204014 <_ZN4core6option15Option$LT$T$GT$6unwrap17h0c387104866985fdE+0x1a>
    80204014:	fd843603          	ld	a2,-40(s0)

0000000080204018 <.LBB9_3>:
    80204018:	0002d517          	auipc	a0,0x2d
    8020401c:	2e150513          	addi	a0,a0,737 # 802312f9 <.L__unnamed_1>
    80204020:	02b00593          	li	a1,43
    80204024:	0002a097          	auipc	ra,0x2a
    80204028:	98c080e7          	jalr	-1652(ra) # 8022d9b0 <_ZN4core9panicking5panic17h0ed902ae04a4e669E>
    8020402c:	0000                	unimp
    8020402e:	fe043503          	ld	a0,-32(s0)
    80204032:	6508                	ld	a0,8(a0)
    80204034:	fea43423          	sd	a0,-24(s0)
    80204038:	fe843503          	ld	a0,-24(s0)
    8020403c:	70a2                	ld	ra,40(sp)
    8020403e:	7402                	ld	s0,32(sp)
    80204040:	6145                	addi	sp,sp,48
    80204042:	8082                	ret

0000000080204044 <_ZN4core6option15Option$LT$T$GT$6unwrap17h0d1cb923ebad28d4E>:
    80204044:	1101                	addi	sp,sp,-32
    80204046:	ec06                	sd	ra,24(sp)
    80204048:	e822                	sd	s0,16(sp)
    8020404a:	1000                	addi	s0,sp,32
    8020404c:	fec43023          	sd	a2,-32(s0)
    80204050:	fea40423          	sb	a0,-24(s0)
    80204054:	feb404a3          	sb	a1,-23(s0)
    80204058:	fe844503          	lbu	a0,-24(s0)
    8020405c:	8905                	andi	a0,a0,1
    8020405e:	4581                	li	a1,0
    80204060:	02b51063          	bne	a0,a1,80204080 <.LBB10_3+0x16>
    80204064:	a009                	j	80204066 <_ZN4core6option15Option$LT$T$GT$6unwrap17h0d1cb923ebad28d4E+0x22>
    80204066:	fe043603          	ld	a2,-32(s0)

000000008020406a <.LBB10_3>:
    8020406a:	0002d517          	auipc	a0,0x2d
    8020406e:	28f50513          	addi	a0,a0,655 # 802312f9 <.L__unnamed_1>
    80204072:	02b00593          	li	a1,43
    80204076:	0002a097          	auipc	ra,0x2a
    8020407a:	93a080e7          	jalr	-1734(ra) # 8022d9b0 <_ZN4core9panicking5panic17h0ed902ae04a4e669E>
    8020407e:	0000                	unimp
    80204080:	fe940503          	lb	a0,-23(s0)
    80204084:	fea407a3          	sb	a0,-17(s0)
    80204088:	60e2                	ld	ra,24(sp)
    8020408a:	6442                	ld	s0,16(sp)
    8020408c:	6105                	addi	sp,sp,32
    8020408e:	8082                	ret

0000000080204090 <_ZN4core6option15Option$LT$T$GT$6unwrap17h1129d78e2e69079cE>:
    80204090:	7179                	addi	sp,sp,-48
    80204092:	f406                	sd	ra,40(sp)
    80204094:	f022                	sd	s0,32(sp)
    80204096:	1800                	addi	s0,sp,48
    80204098:	fcb43c23          	sd	a1,-40(s0)
    8020409c:	fea43023          	sd	a0,-32(s0)
    802040a0:	fe043503          	ld	a0,-32(s0)
    802040a4:	4581                	li	a1,0
    802040a6:	02b51063          	bne	a0,a1,802040c6 <.LBB11_3+0x16>
    802040aa:	a009                	j	802040ac <_ZN4core6option15Option$LT$T$GT$6unwrap17h1129d78e2e69079cE+0x1c>
    802040ac:	fd843603          	ld	a2,-40(s0)

00000000802040b0 <.LBB11_3>:
    802040b0:	0002d517          	auipc	a0,0x2d
    802040b4:	24950513          	addi	a0,a0,585 # 802312f9 <.L__unnamed_1>
    802040b8:	02b00593          	li	a1,43
    802040bc:	0002a097          	auipc	ra,0x2a
    802040c0:	8f4080e7          	jalr	-1804(ra) # 8022d9b0 <_ZN4core9panicking5panic17h0ed902ae04a4e669E>
    802040c4:	0000                	unimp
    802040c6:	fe043503          	ld	a0,-32(s0)
    802040ca:	fea43423          	sd	a0,-24(s0)
    802040ce:	70a2                	ld	ra,40(sp)
    802040d0:	7402                	ld	s0,32(sp)
    802040d2:	6145                	addi	sp,sp,48
    802040d4:	8082                	ret

00000000802040d6 <_ZN4core6option15Option$LT$T$GT$6unwrap17h18dff88dc8fd356bE>:
    802040d6:	7179                	addi	sp,sp,-48
    802040d8:	f406                	sd	ra,40(sp)
    802040da:	f022                	sd	s0,32(sp)
    802040dc:	1800                	addi	s0,sp,48
    802040de:	fcb43c23          	sd	a1,-40(s0)
    802040e2:	fea43023          	sd	a0,-32(s0)
    802040e6:	fe043503          	ld	a0,-32(s0)
    802040ea:	4581                	li	a1,0
    802040ec:	02b51063          	bne	a0,a1,8020410c <.LBB12_3+0x16>
    802040f0:	a009                	j	802040f2 <_ZN4core6option15Option$LT$T$GT$6unwrap17h18dff88dc8fd356bE+0x1c>
    802040f2:	fd843603          	ld	a2,-40(s0)

00000000802040f6 <.LBB12_3>:
    802040f6:	0002d517          	auipc	a0,0x2d
    802040fa:	20350513          	addi	a0,a0,515 # 802312f9 <.L__unnamed_1>
    802040fe:	02b00593          	li	a1,43
    80204102:	0002a097          	auipc	ra,0x2a
    80204106:	8ae080e7          	jalr	-1874(ra) # 8022d9b0 <_ZN4core9panicking5panic17h0ed902ae04a4e669E>
    8020410a:	0000                	unimp
    8020410c:	fe043503          	ld	a0,-32(s0)
    80204110:	fea43423          	sd	a0,-24(s0)
    80204114:	70a2                	ld	ra,40(sp)
    80204116:	7402                	ld	s0,32(sp)
    80204118:	6145                	addi	sp,sp,48
    8020411a:	8082                	ret

000000008020411c <_ZN4core6option15Option$LT$T$GT$6unwrap17h8782cd7d2763232dE>:
    8020411c:	7179                	addi	sp,sp,-48
    8020411e:	f406                	sd	ra,40(sp)
    80204120:	f022                	sd	s0,32(sp)
    80204122:	1800                	addi	s0,sp,48
    80204124:	fcc43823          	sd	a2,-48(s0)
    80204128:	fca43c23          	sd	a0,-40(s0)
    8020412c:	feb43023          	sd	a1,-32(s0)
    80204130:	fd843503          	ld	a0,-40(s0)
    80204134:	4581                	li	a1,0
    80204136:	02b51063          	bne	a0,a1,80204156 <.LBB13_3+0x16>
    8020413a:	a009                	j	8020413c <_ZN4core6option15Option$LT$T$GT$6unwrap17h8782cd7d2763232dE+0x20>
    8020413c:	fd043603          	ld	a2,-48(s0)

0000000080204140 <.LBB13_3>:
    80204140:	0002d517          	auipc	a0,0x2d
    80204144:	1b950513          	addi	a0,a0,441 # 802312f9 <.L__unnamed_1>
    80204148:	02b00593          	li	a1,43
    8020414c:	0002a097          	auipc	ra,0x2a
    80204150:	864080e7          	jalr	-1948(ra) # 8022d9b0 <_ZN4core9panicking5panic17h0ed902ae04a4e669E>
    80204154:	0000                	unimp
    80204156:	fe043503          	ld	a0,-32(s0)
    8020415a:	fea43423          	sd	a0,-24(s0)
    8020415e:	70a2                	ld	ra,40(sp)
    80204160:	7402                	ld	s0,32(sp)
    80204162:	6145                	addi	sp,sp,48
    80204164:	8082                	ret

0000000080204166 <_ZN4core6option15Option$LT$T$GT$6unwrap17h8a64002fce96df4dE>:
    80204166:	7179                	addi	sp,sp,-48
    80204168:	f406                	sd	ra,40(sp)
    8020416a:	f022                	sd	s0,32(sp)
    8020416c:	1800                	addi	s0,sp,48
    8020416e:	fcb43c23          	sd	a1,-40(s0)
    80204172:	fea43023          	sd	a0,-32(s0)
    80204176:	fe043503          	ld	a0,-32(s0)
    8020417a:	4581                	li	a1,0
    8020417c:	02b51063          	bne	a0,a1,8020419c <.LBB14_3+0x16>
    80204180:	a009                	j	80204182 <_ZN4core6option15Option$LT$T$GT$6unwrap17h8a64002fce96df4dE+0x1c>
    80204182:	fd843603          	ld	a2,-40(s0)

0000000080204186 <.LBB14_3>:
    80204186:	0002d517          	auipc	a0,0x2d
    8020418a:	17350513          	addi	a0,a0,371 # 802312f9 <.L__unnamed_1>
    8020418e:	02b00593          	li	a1,43
    80204192:	0002a097          	auipc	ra,0x2a
    80204196:	81e080e7          	jalr	-2018(ra) # 8022d9b0 <_ZN4core9panicking5panic17h0ed902ae04a4e669E>
    8020419a:	0000                	unimp
    8020419c:	fe043503          	ld	a0,-32(s0)
    802041a0:	fea43423          	sd	a0,-24(s0)
    802041a4:	70a2                	ld	ra,40(sp)
    802041a6:	7402                	ld	s0,32(sp)
    802041a8:	6145                	addi	sp,sp,48
    802041aa:	8082                	ret

00000000802041ac <_ZN4core6option15Option$LT$T$GT$6unwrap17h8ee079b933c8c362E>:
    802041ac:	7179                	addi	sp,sp,-48
    802041ae:	f406                	sd	ra,40(sp)
    802041b0:	f022                	sd	s0,32(sp)
    802041b2:	1800                	addi	s0,sp,48
    802041b4:	fcc43823          	sd	a2,-48(s0)
    802041b8:	fca43c23          	sd	a0,-40(s0)
    802041bc:	feb43023          	sd	a1,-32(s0)
    802041c0:	fd843503          	ld	a0,-40(s0)
    802041c4:	4581                	li	a1,0
    802041c6:	02b51063          	bne	a0,a1,802041e6 <.LBB15_3+0x16>
    802041ca:	a009                	j	802041cc <_ZN4core6option15Option$LT$T$GT$6unwrap17h8ee079b933c8c362E+0x20>
    802041cc:	fd043603          	ld	a2,-48(s0)

00000000802041d0 <.LBB15_3>:
    802041d0:	0002d517          	auipc	a0,0x2d
    802041d4:	12950513          	addi	a0,a0,297 # 802312f9 <.L__unnamed_1>
    802041d8:	02b00593          	li	a1,43
    802041dc:	00029097          	auipc	ra,0x29
    802041e0:	7d4080e7          	jalr	2004(ra) # 8022d9b0 <_ZN4core9panicking5panic17h0ed902ae04a4e669E>
    802041e4:	0000                	unimp
    802041e6:	fe043503          	ld	a0,-32(s0)
    802041ea:	fea43423          	sd	a0,-24(s0)
    802041ee:	70a2                	ld	ra,40(sp)
    802041f0:	7402                	ld	s0,32(sp)
    802041f2:	6145                	addi	sp,sp,48
    802041f4:	8082                	ret

00000000802041f6 <_ZN4core6option15Option$LT$T$GT$6unwrap17ha56748a3b0b014deE>:
    802041f6:	7179                	addi	sp,sp,-48
    802041f8:	f406                	sd	ra,40(sp)
    802041fa:	f022                	sd	s0,32(sp)
    802041fc:	1800                	addi	s0,sp,48
    802041fe:	fcb43c23          	sd	a1,-40(s0)
    80204202:	fea43023          	sd	a0,-32(s0)
    80204206:	fe043503          	ld	a0,-32(s0)
    8020420a:	4581                	li	a1,0
    8020420c:	02b51063          	bne	a0,a1,8020422c <.LBB16_3+0x16>
    80204210:	a009                	j	80204212 <_ZN4core6option15Option$LT$T$GT$6unwrap17ha56748a3b0b014deE+0x1c>
    80204212:	fd843603          	ld	a2,-40(s0)

0000000080204216 <.LBB16_3>:
    80204216:	0002d517          	auipc	a0,0x2d
    8020421a:	0e350513          	addi	a0,a0,227 # 802312f9 <.L__unnamed_1>
    8020421e:	02b00593          	li	a1,43
    80204222:	00029097          	auipc	ra,0x29
    80204226:	78e080e7          	jalr	1934(ra) # 8022d9b0 <_ZN4core9panicking5panic17h0ed902ae04a4e669E>
    8020422a:	0000                	unimp
    8020422c:	fe043503          	ld	a0,-32(s0)
    80204230:	fea43423          	sd	a0,-24(s0)
    80204234:	70a2                	ld	ra,40(sp)
    80204236:	7402                	ld	s0,32(sp)
    80204238:	6145                	addi	sp,sp,48
    8020423a:	8082                	ret

000000008020423c <_ZN4core6option15Option$LT$T$GT$6unwrap17haa204cd8736092beE>:
    8020423c:	7179                	addi	sp,sp,-48
    8020423e:	f406                	sd	ra,40(sp)
    80204240:	f022                	sd	s0,32(sp)
    80204242:	1800                	addi	s0,sp,48
    80204244:	fcc43823          	sd	a2,-48(s0)
    80204248:	fca43c23          	sd	a0,-40(s0)
    8020424c:	feb43023          	sd	a1,-32(s0)
    80204250:	fd843503          	ld	a0,-40(s0)
    80204254:	4581                	li	a1,0
    80204256:	02b51063          	bne	a0,a1,80204276 <.LBB17_3+0x16>
    8020425a:	a009                	j	8020425c <_ZN4core6option15Option$LT$T$GT$6unwrap17haa204cd8736092beE+0x20>
    8020425c:	fd043603          	ld	a2,-48(s0)

0000000080204260 <.LBB17_3>:
    80204260:	0002d517          	auipc	a0,0x2d
    80204264:	09950513          	addi	a0,a0,153 # 802312f9 <.L__unnamed_1>
    80204268:	02b00593          	li	a1,43
    8020426c:	00029097          	auipc	ra,0x29
    80204270:	744080e7          	jalr	1860(ra) # 8022d9b0 <_ZN4core9panicking5panic17h0ed902ae04a4e669E>
    80204274:	0000                	unimp
    80204276:	fe043503          	ld	a0,-32(s0)
    8020427a:	fea43423          	sd	a0,-24(s0)
    8020427e:	70a2                	ld	ra,40(sp)
    80204280:	7402                	ld	s0,32(sp)
    80204282:	6145                	addi	sp,sp,48
    80204284:	8082                	ret

0000000080204286 <_ZN4core6option15Option$LT$T$GT$6unwrap17hac122d78f2885928E>:
    80204286:	7179                	addi	sp,sp,-48
    80204288:	f406                	sd	ra,40(sp)
    8020428a:	f022                	sd	s0,32(sp)
    8020428c:	1800                	addi	s0,sp,48
    8020428e:	fcb43c23          	sd	a1,-40(s0)
    80204292:	fea43023          	sd	a0,-32(s0)
    80204296:	fe043503          	ld	a0,-32(s0)
    8020429a:	4581                	li	a1,0
    8020429c:	02b51063          	bne	a0,a1,802042bc <.LBB18_3+0x16>
    802042a0:	a009                	j	802042a2 <_ZN4core6option15Option$LT$T$GT$6unwrap17hac122d78f2885928E+0x1c>
    802042a2:	fd843603          	ld	a2,-40(s0)

00000000802042a6 <.LBB18_3>:
    802042a6:	0002d517          	auipc	a0,0x2d
    802042aa:	05350513          	addi	a0,a0,83 # 802312f9 <.L__unnamed_1>
    802042ae:	02b00593          	li	a1,43
    802042b2:	00029097          	auipc	ra,0x29
    802042b6:	6fe080e7          	jalr	1790(ra) # 8022d9b0 <_ZN4core9panicking5panic17h0ed902ae04a4e669E>
    802042ba:	0000                	unimp
    802042bc:	fe043503          	ld	a0,-32(s0)
    802042c0:	fea43423          	sd	a0,-24(s0)
    802042c4:	70a2                	ld	ra,40(sp)
    802042c6:	7402                	ld	s0,32(sp)
    802042c8:	6145                	addi	sp,sp,48
    802042ca:	8082                	ret

00000000802042cc <_ZN4core6option15Option$LT$T$GT$6unwrap17hbeb41b8d74f16016E>:
    802042cc:	7179                	addi	sp,sp,-48
    802042ce:	f406                	sd	ra,40(sp)
    802042d0:	f022                	sd	s0,32(sp)
    802042d2:	1800                	addi	s0,sp,48
    802042d4:	fcb43c23          	sd	a1,-40(s0)
    802042d8:	fea43023          	sd	a0,-32(s0)
    802042dc:	fe043503          	ld	a0,-32(s0)
    802042e0:	4581                	li	a1,0
    802042e2:	02b51063          	bne	a0,a1,80204302 <.LBB19_3+0x16>
    802042e6:	a009                	j	802042e8 <_ZN4core6option15Option$LT$T$GT$6unwrap17hbeb41b8d74f16016E+0x1c>
    802042e8:	fd843603          	ld	a2,-40(s0)

00000000802042ec <.LBB19_3>:
    802042ec:	0002d517          	auipc	a0,0x2d
    802042f0:	00d50513          	addi	a0,a0,13 # 802312f9 <.L__unnamed_1>
    802042f4:	02b00593          	li	a1,43
    802042f8:	00029097          	auipc	ra,0x29
    802042fc:	6b8080e7          	jalr	1720(ra) # 8022d9b0 <_ZN4core9panicking5panic17h0ed902ae04a4e669E>
    80204300:	0000                	unimp
    80204302:	fe043503          	ld	a0,-32(s0)
    80204306:	fea43423          	sd	a0,-24(s0)
    8020430a:	70a2                	ld	ra,40(sp)
    8020430c:	7402                	ld	s0,32(sp)
    8020430e:	6145                	addi	sp,sp,48
    80204310:	8082                	ret

0000000080204312 <_ZN4core6option15Option$LT$T$GT$8and_then17h72a405ee6118b603E>:
    80204312:	7175                	addi	sp,sp,-144
    80204314:	e506                	sd	ra,136(sp)
    80204316:	e122                	sd	s0,128(sp)
    80204318:	0900                	addi	s0,sp,144
    8020431a:	f6b43823          	sd	a1,-144(s0)
    8020431e:	f6a43c23          	sd	a0,-136(s0)
    80204322:	4505                	li	a0,1
    80204324:	fea403a3          	sb	a0,-25(s0)
    80204328:	6988                	ld	a0,16(a1)
    8020432a:	4581                	li	a1,0
    8020432c:	00b51863          	bne	a0,a1,8020433c <_ZN4core6option15Option$LT$T$GT$8and_then17h72a405ee6118b603E+0x2a>
    80204330:	a009                	j	80204332 <_ZN4core6option15Option$LT$T$GT$8and_then17h72a405ee6118b603E+0x20>
    80204332:	f7843583          	ld	a1,-136(s0)
    80204336:	4509                	li	a0,2
    80204338:	e188                	sd	a0,0(a1)
    8020433a:	a89d                	j	802043b0 <_ZN4core6option15Option$LT$T$GT$8and_then17h72a405ee6118b603E+0x9e>
    8020433c:	f7843503          	ld	a0,-136(s0)
    80204340:	f7043583          	ld	a1,-144(s0)
    80204344:	6d90                	ld	a2,24(a1)
    80204346:	f8c43c23          	sd	a2,-104(s0)
    8020434a:	6990                	ld	a2,16(a1)
    8020434c:	f8c43823          	sd	a2,-112(s0)
    80204350:	6590                	ld	a2,8(a1)
    80204352:	f8c43423          	sd	a2,-120(s0)
    80204356:	618c                	ld	a1,0(a1)
    80204358:	f8b43023          	sd	a1,-128(s0)
    8020435c:	4581                	li	a1,0
    8020435e:	feb403a3          	sb	a1,-25(s0)
    80204362:	f9843583          	ld	a1,-104(s0)
    80204366:	fcb43c23          	sd	a1,-40(s0)
    8020436a:	f9043583          	ld	a1,-112(s0)
    8020436e:	fcb43823          	sd	a1,-48(s0)
    80204372:	f8843583          	ld	a1,-120(s0)
    80204376:	fcb43423          	sd	a1,-56(s0)
    8020437a:	f8043583          	ld	a1,-128(s0)
    8020437e:	fcb43023          	sd	a1,-64(s0)
    80204382:	fd843583          	ld	a1,-40(s0)
    80204386:	fab43c23          	sd	a1,-72(s0)
    8020438a:	fd043583          	ld	a1,-48(s0)
    8020438e:	fab43823          	sd	a1,-80(s0)
    80204392:	fc843583          	ld	a1,-56(s0)
    80204396:	fab43423          	sd	a1,-88(s0)
    8020439a:	fc043583          	ld	a1,-64(s0)
    8020439e:	fab43023          	sd	a1,-96(s0)
    802043a2:	fa040593          	addi	a1,s0,-96
    802043a6:	00018097          	auipc	ra,0x18
    802043aa:	a7a080e7          	jalr	-1414(ra) # 8021be20 <_ZN11hypocaust_210hypervisor3fdt11MachineMeta5parse28_$u7b$$u7b$closure$u7d$$u7d$17h1c28ebe8eed35e64E>
    802043ae:	a009                	j	802043b0 <_ZN4core6option15Option$LT$T$GT$8and_then17h72a405ee6118b603E+0x9e>
    802043b0:	fe744503          	lbu	a0,-25(s0)
    802043b4:	8905                	andi	a0,a0,1
    802043b6:	4581                	li	a1,0
    802043b8:	00b51763          	bne	a0,a1,802043c6 <_ZN4core6option15Option$LT$T$GT$8and_then17h72a405ee6118b603E+0xb4>
    802043bc:	a009                	j	802043be <_ZN4core6option15Option$LT$T$GT$8and_then17h72a405ee6118b603E+0xac>
    802043be:	60aa                	ld	ra,136(sp)
    802043c0:	640a                	ld	s0,128(sp)
    802043c2:	6149                	addi	sp,sp,144
    802043c4:	8082                	ret
    802043c6:	bfe5                	j	802043be <_ZN4core6option15Option$LT$T$GT$8and_then17h72a405ee6118b603E+0xac>

00000000802043c8 <_ZN4core6option15Option$LT$T$GT$8and_then17hc124fdb837b6e434E>:
    802043c8:	7175                	addi	sp,sp,-144
    802043ca:	e506                	sd	ra,136(sp)
    802043cc:	e122                	sd	s0,128(sp)
    802043ce:	0900                	addi	s0,sp,144
    802043d0:	f6b43823          	sd	a1,-144(s0)
    802043d4:	f6a43c23          	sd	a0,-136(s0)
    802043d8:	4505                	li	a0,1
    802043da:	fea403a3          	sb	a0,-25(s0)
    802043de:	6988                	ld	a0,16(a1)
    802043e0:	4581                	li	a1,0
    802043e2:	00b51863          	bne	a0,a1,802043f2 <_ZN4core6option15Option$LT$T$GT$8and_then17hc124fdb837b6e434E+0x2a>
    802043e6:	a009                	j	802043e8 <_ZN4core6option15Option$LT$T$GT$8and_then17hc124fdb837b6e434E+0x20>
    802043e8:	f7843583          	ld	a1,-136(s0)
    802043ec:	4509                	li	a0,2
    802043ee:	e188                	sd	a0,0(a1)
    802043f0:	a89d                	j	80204466 <_ZN4core6option15Option$LT$T$GT$8and_then17hc124fdb837b6e434E+0x9e>
    802043f2:	f7843503          	ld	a0,-136(s0)
    802043f6:	f7043583          	ld	a1,-144(s0)
    802043fa:	6d90                	ld	a2,24(a1)
    802043fc:	f8c43c23          	sd	a2,-104(s0)
    80204400:	6990                	ld	a2,16(a1)
    80204402:	f8c43823          	sd	a2,-112(s0)
    80204406:	6590                	ld	a2,8(a1)
    80204408:	f8c43423          	sd	a2,-120(s0)
    8020440c:	618c                	ld	a1,0(a1)
    8020440e:	f8b43023          	sd	a1,-128(s0)
    80204412:	4581                	li	a1,0
    80204414:	feb403a3          	sb	a1,-25(s0)
    80204418:	f9843583          	ld	a1,-104(s0)
    8020441c:	fcb43c23          	sd	a1,-40(s0)
    80204420:	f9043583          	ld	a1,-112(s0)
    80204424:	fcb43823          	sd	a1,-48(s0)
    80204428:	f8843583          	ld	a1,-120(s0)
    8020442c:	fcb43423          	sd	a1,-56(s0)
    80204430:	f8043583          	ld	a1,-128(s0)
    80204434:	fcb43023          	sd	a1,-64(s0)
    80204438:	fd843583          	ld	a1,-40(s0)
    8020443c:	fab43c23          	sd	a1,-72(s0)
    80204440:	fd043583          	ld	a1,-48(s0)
    80204444:	fab43823          	sd	a1,-80(s0)
    80204448:	fc843583          	ld	a1,-56(s0)
    8020444c:	fab43423          	sd	a1,-88(s0)
    80204450:	fc043583          	ld	a1,-64(s0)
    80204454:	fab43023          	sd	a1,-96(s0)
    80204458:	fa040593          	addi	a1,s0,-96
    8020445c:	00018097          	auipc	ra,0x18
    80204460:	992080e7          	jalr	-1646(ra) # 8021bdee <_ZN11hypocaust_210hypervisor3fdt11MachineMeta5parse28_$u7b$$u7b$closure$u7d$$u7d$17h8b3dfe504e38efadE>
    80204464:	a009                	j	80204466 <_ZN4core6option15Option$LT$T$GT$8and_then17hc124fdb837b6e434E+0x9e>
    80204466:	fe744503          	lbu	a0,-25(s0)
    8020446a:	8905                	andi	a0,a0,1
    8020446c:	4581                	li	a1,0
    8020446e:	00b51763          	bne	a0,a1,8020447c <_ZN4core6option15Option$LT$T$GT$8and_then17hc124fdb837b6e434E+0xb4>
    80204472:	a009                	j	80204474 <_ZN4core6option15Option$LT$T$GT$8and_then17hc124fdb837b6e434E+0xac>
    80204474:	60aa                	ld	ra,136(sp)
    80204476:	640a                	ld	s0,128(sp)
    80204478:	6149                	addi	sp,sp,144
    8020447a:	8082                	ret
    8020447c:	bfe5                	j	80204474 <_ZN4core6option15Option$LT$T$GT$8and_then17hc124fdb837b6e434E+0xac>

000000008020447e <_ZN72_$LT$core..option..Option$LT$T$GT$$u20$as$u20$core..default..Default$GT$7default17hc53c91be67490867E>:
    8020447e:	1141                	addi	sp,sp,-16
    80204480:	e406                	sd	ra,8(sp)
    80204482:	e022                	sd	s0,0(sp)
    80204484:	0800                	addi	s0,sp,16
    80204486:	85aa                	mv	a1,a0
    80204488:	4501                	li	a0,0
    8020448a:	e188                	sd	a0,0(a1)
    8020448c:	60a2                	ld	ra,8(sp)
    8020448e:	6402                	ld	s0,0(sp)
    80204490:	0141                	addi	sp,sp,16
    80204492:	8082                	ret

0000000080204494 <_ZN84_$LT$core..option..Option$LT$T$GT$$u20$as$u20$core..ops..try_trait..FromResidual$GT$13from_residual17h33deed316eee4e79E>:
    80204494:	1101                	addi	sp,sp,-32
    80204496:	ec06                	sd	ra,24(sp)
    80204498:	e822                	sd	s0,16(sp)
    8020449a:	1000                	addi	s0,sp,32
    8020449c:	85aa                	mv	a1,a0
    8020449e:	4509                	li	a0,2
    802044a0:	e188                	sd	a0,0(a1)
    802044a2:	60e2                	ld	ra,24(sp)
    802044a4:	6442                	ld	s0,16(sp)
    802044a6:	6105                	addi	sp,sp,32
    802044a8:	8082                	ret

00000000802044aa <_ZN4core4iter6traits8iterator8Iterator9enumerate17he681f7be33c6f8a5E>:
    802044aa:	1101                	addi	sp,sp,-32
    802044ac:	ec06                	sd	ra,24(sp)
    802044ae:	e822                	sd	s0,16(sp)
    802044b0:	1000                	addi	s0,sp,32
    802044b2:	feb43023          	sd	a1,-32(s0)
    802044b6:	fec43423          	sd	a2,-24(s0)
    802044ba:	00026097          	auipc	ra,0x26
    802044be:	712080e7          	jalr	1810(ra) # 8022abcc <_ZN4core4iter8adapters9enumerate18Enumerate$LT$I$GT$3new17h6801f687445c0cacE>
    802044c2:	60e2                	ld	ra,24(sp)
    802044c4:	6442                	ld	s0,16(sp)
    802044c6:	6105                	addi	sp,sp,32
    802044c8:	8082                	ret

00000000802044ca <_ZN4core5slice4iter13Iter$LT$T$GT$3new17h5caaf096ccdc6fdeE>:
    802044ca:	712d                	addi	sp,sp,-288
    802044cc:	ee06                	sd	ra,280(sp)
    802044ce:	ea22                	sd	s0,272(sp)
    802044d0:	1200                	addi	s0,sp,288
    802044d2:	eeb43023          	sd	a1,-288(s0)
    802044d6:	eea43423          	sd	a0,-280(s0)
    802044da:	f2a43423          	sd	a0,-216(s0)
    802044de:	f2b43823          	sd	a1,-208(s0)
    802044e2:	f4a43023          	sd	a0,-192(s0)
    802044e6:	f4b43423          	sd	a1,-184(s0)
    802044ea:	f4a43823          	sd	a0,-176(s0)
    802044ee:	f4a43c23          	sd	a0,-168(s0)
    802044f2:	f0a43823          	sd	a0,-240(s0)
    802044f6:	f1043503          	ld	a0,-240(s0)
    802044fa:	f6a43023          	sd	a0,-160(s0)
    802044fe:	f6a43423          	sd	a0,-152(s0)
    80204502:	f6a43823          	sd	a0,-144(s0)
    80204506:	4501                	li	a0,0
    80204508:	02a51463          	bne	a0,a0,80204530 <_ZN4core5slice4iter13Iter$LT$T$GT$3new17h5caaf096ccdc6fdeE+0x66>
    8020450c:	a009                	j	8020450e <_ZN4core5slice4iter13Iter$LT$T$GT$3new17h5caaf096ccdc6fdeE+0x44>
    8020450e:	ee843503          	ld	a0,-280(s0)
    80204512:	ee043583          	ld	a1,-288(s0)
    80204516:	fca43423          	sd	a0,-56(s0)
    8020451a:	fcb43823          	sd	a1,-48(s0)
    8020451e:	fca43c23          	sd	a0,-40(s0)
    80204522:	feb43023          	sd	a1,-32(s0)
    80204526:	058e                	slli	a1,a1,0x3
    80204528:	952e                	add	a0,a0,a1
    8020452a:	f0a43023          	sd	a0,-256(s0)
    8020452e:	a0b9                	j	8020457c <_ZN4core5slice4iter13Iter$LT$T$GT$3new17h5caaf096ccdc6fdeE+0xb2>
    80204530:	ee843503          	ld	a0,-280(s0)
    80204534:	ee043583          	ld	a1,-288(s0)
    80204538:	f6a43c23          	sd	a0,-136(s0)
    8020453c:	f8b43023          	sd	a1,-128(s0)
    80204540:	f8a43423          	sd	a0,-120(s0)
    80204544:	f8a43823          	sd	a0,-112(s0)
    80204548:	f8b43c23          	sd	a1,-104(s0)
    8020454c:	faa43023          	sd	a0,-96(s0)
    80204550:	fab43423          	sd	a1,-88(s0)
    80204554:	952e                	add	a0,a0,a1
    80204556:	faa43823          	sd	a0,-80(s0)
    8020455a:	fb043503          	ld	a0,-80(s0)
    8020455e:	faa43c23          	sd	a0,-72(s0)
    80204562:	fca43023          	sd	a0,-64(s0)
    80204566:	f2a43023          	sd	a0,-224(s0)
    8020456a:	f2043503          	ld	a0,-224(s0)
    8020456e:	f0a43c23          	sd	a0,-232(s0)
    80204572:	f1843503          	ld	a0,-232(s0)
    80204576:	f0a43023          	sd	a0,-256(s0)
    8020457a:	a009                	j	8020457c <_ZN4core5slice4iter13Iter$LT$T$GT$3new17h5caaf096ccdc6fdeE+0xb2>
    8020457c:	ee843503          	ld	a0,-280(s0)
    80204580:	fea43423          	sd	a0,-24(s0)
    80204584:	f0a43423          	sd	a0,-248(s0)
    80204588:	f0043503          	ld	a0,-256(s0)
    8020458c:	f0843583          	ld	a1,-248(s0)
    80204590:	eeb43c23          	sd	a1,-264(s0)
    80204594:	eea43823          	sd	a0,-272(s0)
    80204598:	ef043503          	ld	a0,-272(s0)
    8020459c:	ef843583          	ld	a1,-264(s0)
    802045a0:	60f2                	ld	ra,280(sp)
    802045a2:	6452                	ld	s0,272(sp)
    802045a4:	6115                	addi	sp,sp,288
    802045a6:	8082                	ret

00000000802045a8 <_ZN4core5slice4iter13Iter$LT$T$GT$3new17h9ea3f78d2409f8e3E>:
    802045a8:	712d                	addi	sp,sp,-288
    802045aa:	ee06                	sd	ra,280(sp)
    802045ac:	ea22                	sd	s0,272(sp)
    802045ae:	1200                	addi	s0,sp,288
    802045b0:	eeb43023          	sd	a1,-288(s0)
    802045b4:	eea43423          	sd	a0,-280(s0)
    802045b8:	f2a43423          	sd	a0,-216(s0)
    802045bc:	f2b43823          	sd	a1,-208(s0)
    802045c0:	f4a43023          	sd	a0,-192(s0)
    802045c4:	f4b43423          	sd	a1,-184(s0)
    802045c8:	f4a43823          	sd	a0,-176(s0)
    802045cc:	f4a43c23          	sd	a0,-168(s0)
    802045d0:	f0a43823          	sd	a0,-240(s0)
    802045d4:	f1043503          	ld	a0,-240(s0)
    802045d8:	f6a43023          	sd	a0,-160(s0)
    802045dc:	f6a43423          	sd	a0,-152(s0)
    802045e0:	f6a43823          	sd	a0,-144(s0)
    802045e4:	4501                	li	a0,0
    802045e6:	02a51463          	bne	a0,a0,8020460e <_ZN4core5slice4iter13Iter$LT$T$GT$3new17h9ea3f78d2409f8e3E+0x66>
    802045ea:	a009                	j	802045ec <_ZN4core5slice4iter13Iter$LT$T$GT$3new17h9ea3f78d2409f8e3E+0x44>
    802045ec:	ee843503          	ld	a0,-280(s0)
    802045f0:	ee043583          	ld	a1,-288(s0)
    802045f4:	fca43423          	sd	a0,-56(s0)
    802045f8:	fcb43823          	sd	a1,-48(s0)
    802045fc:	fca43c23          	sd	a0,-40(s0)
    80204600:	feb43023          	sd	a1,-32(s0)
    80204604:	0592                	slli	a1,a1,0x4
    80204606:	952e                	add	a0,a0,a1
    80204608:	f0a43023          	sd	a0,-256(s0)
    8020460c:	a0b9                	j	8020465a <_ZN4core5slice4iter13Iter$LT$T$GT$3new17h9ea3f78d2409f8e3E+0xb2>
    8020460e:	ee843503          	ld	a0,-280(s0)
    80204612:	ee043583          	ld	a1,-288(s0)
    80204616:	f6a43c23          	sd	a0,-136(s0)
    8020461a:	f8b43023          	sd	a1,-128(s0)
    8020461e:	f8a43423          	sd	a0,-120(s0)
    80204622:	f8a43823          	sd	a0,-112(s0)
    80204626:	f8b43c23          	sd	a1,-104(s0)
    8020462a:	faa43023          	sd	a0,-96(s0)
    8020462e:	fab43423          	sd	a1,-88(s0)
    80204632:	952e                	add	a0,a0,a1
    80204634:	faa43823          	sd	a0,-80(s0)
    80204638:	fb043503          	ld	a0,-80(s0)
    8020463c:	faa43c23          	sd	a0,-72(s0)
    80204640:	fca43023          	sd	a0,-64(s0)
    80204644:	f2a43023          	sd	a0,-224(s0)
    80204648:	f2043503          	ld	a0,-224(s0)
    8020464c:	f0a43c23          	sd	a0,-232(s0)
    80204650:	f1843503          	ld	a0,-232(s0)
    80204654:	f0a43023          	sd	a0,-256(s0)
    80204658:	a009                	j	8020465a <_ZN4core5slice4iter13Iter$LT$T$GT$3new17h9ea3f78d2409f8e3E+0xb2>
    8020465a:	ee843503          	ld	a0,-280(s0)
    8020465e:	fea43423          	sd	a0,-24(s0)
    80204662:	f0a43423          	sd	a0,-248(s0)
    80204666:	f0043503          	ld	a0,-256(s0)
    8020466a:	f0843583          	ld	a1,-248(s0)
    8020466e:	eeb43c23          	sd	a1,-264(s0)
    80204672:	eea43823          	sd	a0,-272(s0)
    80204676:	ef043503          	ld	a0,-272(s0)
    8020467a:	ef843583          	ld	a1,-264(s0)
    8020467e:	60f2                	ld	ra,280(sp)
    80204680:	6452                	ld	s0,272(sp)
    80204682:	6115                	addi	sp,sp,288
    80204684:	8082                	ret

0000000080204686 <_ZN4core5slice4iter16IterMut$LT$T$GT$3new17h1a654674fec1abf5E>:
    80204686:	7169                	addi	sp,sp,-304
    80204688:	f606                	sd	ra,296(sp)
    8020468a:	f222                	sd	s0,288(sp)
    8020468c:	1a00                	addi	s0,sp,304
    8020468e:	ecb43c23          	sd	a1,-296(s0)
    80204692:	eea43023          	sd	a0,-288(s0)
    80204696:	f2a43023          	sd	a0,-224(s0)
    8020469a:	f2b43423          	sd	a1,-216(s0)
    8020469e:	f2a43c23          	sd	a0,-200(s0)
    802046a2:	f4b43023          	sd	a1,-192(s0)
    802046a6:	f4a43423          	sd	a0,-184(s0)
    802046aa:	f4a43823          	sd	a0,-176(s0)
    802046ae:	f0a43423          	sd	a0,-248(s0)
    802046b2:	f0843503          	ld	a0,-248(s0)
    802046b6:	f4a43c23          	sd	a0,-168(s0)
    802046ba:	f6a43023          	sd	a0,-160(s0)
    802046be:	f6a43423          	sd	a0,-152(s0)
    802046c2:	4501                	li	a0,0
    802046c4:	02a51763          	bne	a0,a0,802046f2 <_ZN4core5slice4iter16IterMut$LT$T$GT$3new17h1a654674fec1abf5E+0x6c>
    802046c8:	a009                	j	802046ca <_ZN4core5slice4iter16IterMut$LT$T$GT$3new17h1a654674fec1abf5E+0x44>
    802046ca:	ee043503          	ld	a0,-288(s0)
    802046ce:	ed843583          	ld	a1,-296(s0)
    802046d2:	fca43023          	sd	a0,-64(s0)
    802046d6:	fcb43423          	sd	a1,-56(s0)
    802046da:	fca43823          	sd	a0,-48(s0)
    802046de:	fcb43c23          	sd	a1,-40(s0)
    802046e2:	952e                	add	a0,a0,a1
    802046e4:	fea43023          	sd	a0,-32(s0)
    802046e8:	fe043503          	ld	a0,-32(s0)
    802046ec:	eea43c23          	sd	a0,-264(s0)
    802046f0:	a0b9                	j	8020473e <_ZN4core5slice4iter16IterMut$LT$T$GT$3new17h1a654674fec1abf5E+0xb8>
    802046f2:	ee043503          	ld	a0,-288(s0)
    802046f6:	ed843583          	ld	a1,-296(s0)
    802046fa:	f6a43823          	sd	a0,-144(s0)
    802046fe:	f6b43c23          	sd	a1,-136(s0)
    80204702:	f8a43023          	sd	a0,-128(s0)
    80204706:	f8a43423          	sd	a0,-120(s0)
    8020470a:	f8b43823          	sd	a1,-112(s0)
    8020470e:	f8a43c23          	sd	a0,-104(s0)
    80204712:	fab43023          	sd	a1,-96(s0)
    80204716:	952e                	add	a0,a0,a1
    80204718:	faa43423          	sd	a0,-88(s0)
    8020471c:	fa843503          	ld	a0,-88(s0)
    80204720:	faa43823          	sd	a0,-80(s0)
    80204724:	faa43c23          	sd	a0,-72(s0)
    80204728:	f0a43c23          	sd	a0,-232(s0)
    8020472c:	f1843503          	ld	a0,-232(s0)
    80204730:	f0a43823          	sd	a0,-240(s0)
    80204734:	f1043503          	ld	a0,-240(s0)
    80204738:	eea43c23          	sd	a0,-264(s0)
    8020473c:	a009                	j	8020473e <_ZN4core5slice4iter16IterMut$LT$T$GT$3new17h1a654674fec1abf5E+0xb8>
    8020473e:	ee043503          	ld	a0,-288(s0)
    80204742:	fea43423          	sd	a0,-24(s0)
    80204746:	f0a43023          	sd	a0,-256(s0)
    8020474a:	ef843503          	ld	a0,-264(s0)
    8020474e:	f0043583          	ld	a1,-256(s0)
    80204752:	eeb43823          	sd	a1,-272(s0)
    80204756:	eea43423          	sd	a0,-280(s0)
    8020475a:	ee843503          	ld	a0,-280(s0)
    8020475e:	ef043583          	ld	a1,-272(s0)
    80204762:	70b2                	ld	ra,296(sp)
    80204764:	7412                	ld	s0,288(sp)
    80204766:	6155                	addi	sp,sp,304
    80204768:	8082                	ret

000000008020476a <_ZN4core5slice4iter95_$LT$impl$u20$core..iter..traits..collect..IntoIterator$u20$for$u20$$RF$mut$u20$$u5b$T$u5d$$GT$9into_iter17h2ba1b98f7a295068E>:
    8020476a:	7179                	addi	sp,sp,-48
    8020476c:	f406                	sd	ra,40(sp)
    8020476e:	f022                	sd	s0,32(sp)
    80204770:	1800                	addi	s0,sp,48
    80204772:	fca43823          	sd	a0,-48(s0)
    80204776:	fcb43c23          	sd	a1,-40(s0)
    8020477a:	fea43023          	sd	a0,-32(s0)
    8020477e:	feb43423          	sd	a1,-24(s0)
    80204782:	00000097          	auipc	ra,0x0
    80204786:	f04080e7          	jalr	-252(ra) # 80204686 <_ZN4core5slice4iter16IterMut$LT$T$GT$3new17h1a654674fec1abf5E>
    8020478a:	70a2                	ld	ra,40(sp)
    8020478c:	7402                	ld	s0,32(sp)
    8020478e:	6145                	addi	sp,sp,48
    80204790:	8082                	ret

0000000080204792 <_ZN63_$LT$I$u20$as$u20$core..iter..traits..collect..IntoIterator$GT$9into_iter17hdec9508662402216E>:
    80204792:	1101                	addi	sp,sp,-32
    80204794:	ec06                	sd	ra,24(sp)
    80204796:	e822                	sd	s0,16(sp)
    80204798:	1000                	addi	s0,sp,32
    8020479a:	fea43023          	sd	a0,-32(s0)
    8020479e:	feb43423          	sd	a1,-24(s0)
    802047a2:	60e2                	ld	ra,24(sp)
    802047a4:	6442                	ld	s0,16(sp)
    802047a6:	6105                	addi	sp,sp,32
    802047a8:	8082                	ret

00000000802047aa <_ZN91_$LT$core..slice..iter..Iter$LT$T$GT$$u20$as$u20$core..iter..traits..iterator..Iterator$GT$3any17h1c2dccc00726e5ddE>:
    802047aa:	715d                	addi	sp,sp,-80
    802047ac:	e486                	sd	ra,72(sp)
    802047ae:	e0a2                	sd	s0,64(sp)
    802047b0:	0880                	addi	s0,sp,80
    802047b2:	faa43c23          	sd	a0,-72(s0)
    802047b6:	fcb43023          	sd	a1,-64(s0)
    802047ba:	fea43023          	sd	a0,-32(s0)
    802047be:	a009                	j	802047c0 <_ZN91_$LT$core..slice..iter..Iter$LT$T$GT$$u20$as$u20$core..iter..traits..iterator..Iterator$GT$3any17h1c2dccc00726e5ddE+0x16>
    802047c0:	fb843503          	ld	a0,-72(s0)
    802047c4:	00028097          	auipc	ra,0x28
    802047c8:	05e080e7          	jalr	94(ra) # 8022c822 <_ZN91_$LT$core..slice..iter..Iter$LT$T$GT$$u20$as$u20$core..iter..traits..iterator..Iterator$GT$4next17h6cba77743d601631E>
    802047cc:	fca43823          	sd	a0,-48(s0)
    802047d0:	fd043503          	ld	a0,-48(s0)
    802047d4:	4581                	li	a1,0
    802047d6:	02b50563          	beq	a0,a1,80204800 <_ZN91_$LT$core..slice..iter..Iter$LT$T$GT$$u20$as$u20$core..iter..traits..iterator..Iterator$GT$3any17h1c2dccc00726e5ddE+0x56>
    802047da:	a009                	j	802047dc <_ZN91_$LT$core..slice..iter..Iter$LT$T$GT$$u20$as$u20$core..iter..traits..iterator..Iterator$GT$3any17h1c2dccc00726e5ddE+0x32>
    802047dc:	fd043503          	ld	a0,-48(s0)
    802047e0:	fea43423          	sd	a0,-24(s0)
    802047e4:	fca43c23          	sd	a0,-40(s0)
    802047e8:	fd843583          	ld	a1,-40(s0)
    802047ec:	fc040513          	addi	a0,s0,-64
    802047f0:	00013097          	auipc	ra,0x13
    802047f4:	074080e7          	jalr	116(ra) # 80217864 <_ZN136_$LT$hypocaust_2..hyp_alloc..frame_allocator..StackFrameAllocator$u20$as$u20$hypocaust_2..hyp_alloc..frame_allocator..FrameAllocator$GT$7dealloc28_$u7b$$u7b$closure$u7d$$u7d$17h050b0d7866f9abefE>
    802047f8:	4581                	li	a1,0
    802047fa:	00b51e63          	bne	a0,a1,80204816 <_ZN91_$LT$core..slice..iter..Iter$LT$T$GT$$u20$as$u20$core..iter..traits..iterator..Iterator$GT$3any17h1c2dccc00726e5ddE+0x6c>
    802047fe:	a819                	j	80204814 <_ZN91_$LT$core..slice..iter..Iter$LT$T$GT$$u20$as$u20$core..iter..traits..iterator..Iterator$GT$3any17h1c2dccc00726e5ddE+0x6a>
    80204800:	4501                	li	a0,0
    80204802:	fca407a3          	sb	a0,-49(s0)
    80204806:	a009                	j	80204808 <_ZN91_$LT$core..slice..iter..Iter$LT$T$GT$$u20$as$u20$core..iter..traits..iterator..Iterator$GT$3any17h1c2dccc00726e5ddE+0x5e>
    80204808:	fcf44503          	lbu	a0,-49(s0)
    8020480c:	60a6                	ld	ra,72(sp)
    8020480e:	6406                	ld	s0,64(sp)
    80204810:	6161                	addi	sp,sp,80
    80204812:	8082                	ret
    80204814:	b775                	j	802047c0 <_ZN91_$LT$core..slice..iter..Iter$LT$T$GT$$u20$as$u20$core..iter..traits..iterator..Iterator$GT$3any17h1c2dccc00726e5ddE+0x16>
    80204816:	4505                	li	a0,1
    80204818:	fca407a3          	sb	a0,-49(s0)
    8020481c:	b7f5                	j	80204808 <_ZN91_$LT$core..slice..iter..Iter$LT$T$GT$$u20$as$u20$core..iter..traits..iterator..Iterator$GT$3any17h1c2dccc00726e5ddE+0x5e>

000000008020481e <_ZN91_$LT$core..slice..iter..Iter$LT$T$GT$$u20$as$u20$core..iter..traits..iterator..Iterator$GT$4next17h54e7c3b597574955E>:
    8020481e:	7169                	addi	sp,sp,-304
    80204820:	f606                	sd	ra,296(sp)
    80204822:	f222                	sd	s0,288(sp)
    80204824:	1a00                	addi	s0,sp,304
    80204826:	eca43823          	sd	a0,-304(s0)
    8020482a:	f0a43823          	sd	a0,-240(s0)
    8020482e:	6508                	ld	a0,8(a0)
    80204830:	f2a43023          	sd	a0,-224(s0)
    80204834:	f2a43423          	sd	a0,-216(s0)
    80204838:	eea43423          	sd	a0,-280(s0)
    8020483c:	ee843503          	ld	a0,-280(s0)
    80204840:	f2a43823          	sd	a0,-208(s0)
    80204844:	f2a43c23          	sd	a0,-200(s0)
    80204848:	f4a43023          	sd	a0,-192(s0)
    8020484c:	4581                	li	a1,0
    8020484e:	4505                	li	a0,1
    80204850:	00b51c63          	bne	a0,a1,80204868 <_ZN91_$LT$core..slice..iter..Iter$LT$T$GT$$u20$as$u20$core..iter..traits..iterator..Iterator$GT$4next17h54e7c3b597574955E+0x4a>
    80204854:	a009                	j	80204856 <_ZN91_$LT$core..slice..iter..Iter$LT$T$GT$$u20$as$u20$core..iter..traits..iterator..Iterator$GT$4next17h54e7c3b597574955E+0x38>
    80204856:	ed043583          	ld	a1,-304(s0)
    8020485a:	6588                	ld	a0,8(a1)
    8020485c:	f6a43423          	sd	a0,-152(s0)
    80204860:	618c                	ld	a1,0(a1)
    80204862:	02b50b63          	beq	a0,a1,80204898 <_ZN91_$LT$core..slice..iter..Iter$LT$T$GT$$u20$as$u20$core..iter..traits..iterator..Iterator$GT$4next17h54e7c3b597574955E+0x7a>
    80204866:	a00d                	j	80204888 <_ZN91_$LT$core..slice..iter..Iter$LT$T$GT$$u20$as$u20$core..iter..traits..iterator..Iterator$GT$4next17h54e7c3b597574955E+0x6a>
    80204868:	ed043503          	ld	a0,-304(s0)
    8020486c:	6108                	ld	a0,0(a0)
    8020486e:	f4a43423          	sd	a0,-184(s0)
    80204872:	eea43823          	sd	a0,-272(s0)
    80204876:	ef043503          	ld	a0,-272(s0)
    8020487a:	f4a43823          	sd	a0,-176(s0)
    8020487e:	f4a43c23          	sd	a0,-168(s0)
    80204882:	f6a43023          	sd	a0,-160(s0)
    80204886:	bfc1                	j	80204856 <_ZN91_$LT$core..slice..iter..Iter$LT$T$GT$$u20$as$u20$core..iter..traits..iterator..Iterator$GT$4next17h54e7c3b597574955E+0x38>
    80204888:	ed043503          	ld	a0,-304(s0)
    8020488c:	f6a43823          	sd	a0,-144(s0)
    80204890:	4501                	li	a0,0
    80204892:	00a51d63          	bne	a0,a0,802048ac <_ZN91_$LT$core..slice..iter..Iter$LT$T$GT$$u20$as$u20$core..iter..traits..iterator..Iterator$GT$4next17h54e7c3b597574955E+0x8e>
    80204896:	a8b1                	j	802048f2 <_ZN91_$LT$core..slice..iter..Iter$LT$T$GT$$u20$as$u20$core..iter..traits..iterator..Iterator$GT$4next17h54e7c3b597574955E+0xd4>
    80204898:	4501                	li	a0,0
    8020489a:	eca43c23          	sd	a0,-296(s0)
    8020489e:	a009                	j	802048a0 <_ZN91_$LT$core..slice..iter..Iter$LT$T$GT$$u20$as$u20$core..iter..traits..iterator..Iterator$GT$4next17h54e7c3b597574955E+0x82>
    802048a0:	ed843503          	ld	a0,-296(s0)
    802048a4:	70b2                	ld	ra,296(sp)
    802048a6:	7412                	ld	s0,288(sp)
    802048a8:	6155                	addi	sp,sp,304
    802048aa:	8082                	ret
    802048ac:	ed043503          	ld	a0,-304(s0)
    802048b0:	610c                	ld	a1,0(a0)
    802048b2:	fab43823          	sd	a1,-80(s0)
    802048b6:	fab43c23          	sd	a1,-72(s0)
    802048ba:	fcb43023          	sd	a1,-64(s0)
    802048be:	fcb43423          	sd	a1,-56(s0)
    802048c2:	15fd                	addi	a1,a1,-1
    802048c4:	fcb43823          	sd	a1,-48(s0)
    802048c8:	fd043583          	ld	a1,-48(s0)
    802048cc:	fcb43c23          	sd	a1,-40(s0)
    802048d0:	feb43023          	sd	a1,-32(s0)
    802048d4:	f0b43423          	sd	a1,-248(s0)
    802048d8:	f0843583          	ld	a1,-248(s0)
    802048dc:	f0b43023          	sd	a1,-256(s0)
    802048e0:	f0043583          	ld	a1,-256(s0)
    802048e4:	e10c                	sd	a1,0(a0)
    802048e6:	6508                	ld	a0,8(a0)
    802048e8:	fea43423          	sd	a0,-24(s0)
    802048ec:	eea43023          	sd	a0,-288(s0)
    802048f0:	a835                	j	8020492c <_ZN91_$LT$core..slice..iter..Iter$LT$T$GT$$u20$as$u20$core..iter..traits..iterator..Iterator$GT$4next17h54e7c3b597574955E+0x10e>
    802048f2:	ed043603          	ld	a2,-304(s0)
    802048f6:	6608                	ld	a0,8(a2)
    802048f8:	f6a43c23          	sd	a0,-136(s0)
    802048fc:	f8a43023          	sd	a0,-128(s0)
    80204900:	660c                	ld	a1,8(a2)
    80204902:	f8b43423          	sd	a1,-120(s0)
    80204906:	f8b43823          	sd	a1,-112(s0)
    8020490a:	f8b43c23          	sd	a1,-104(s0)
    8020490e:	05c1                	addi	a1,a1,16
    80204910:	fab43023          	sd	a1,-96(s0)
    80204914:	fa043583          	ld	a1,-96(s0)
    80204918:	fab43423          	sd	a1,-88(s0)
    8020491c:	eeb43c23          	sd	a1,-264(s0)
    80204920:	ef843583          	ld	a1,-264(s0)
    80204924:	e60c                	sd	a1,8(a2)
    80204926:	eea43023          	sd	a0,-288(s0)
    8020492a:	a009                	j	8020492c <_ZN91_$LT$core..slice..iter..Iter$LT$T$GT$$u20$as$u20$core..iter..traits..iterator..Iterator$GT$4next17h54e7c3b597574955E+0x10e>
    8020492c:	ee043503          	ld	a0,-288(s0)
    80204930:	eca43c23          	sd	a0,-296(s0)
    80204934:	b7b5                	j	802048a0 <_ZN91_$LT$core..slice..iter..Iter$LT$T$GT$$u20$as$u20$core..iter..traits..iterator..Iterator$GT$4next17h54e7c3b597574955E+0x82>

0000000080204936 <_ZN91_$LT$core..slice..iter..Iter$LT$T$GT$$u20$as$u20$core..iter..traits..iterator..Iterator$GT$4next17h6a3c52a9982253f8E>:
    80204936:	7169                	addi	sp,sp,-304
    80204938:	f606                	sd	ra,296(sp)
    8020493a:	f222                	sd	s0,288(sp)
    8020493c:	1a00                	addi	s0,sp,304
    8020493e:	eca43823          	sd	a0,-304(s0)
    80204942:	f0a43823          	sd	a0,-240(s0)
    80204946:	6508                	ld	a0,8(a0)
    80204948:	f2a43023          	sd	a0,-224(s0)
    8020494c:	f2a43423          	sd	a0,-216(s0)
    80204950:	eea43423          	sd	a0,-280(s0)
    80204954:	ee843503          	ld	a0,-280(s0)
    80204958:	f2a43823          	sd	a0,-208(s0)
    8020495c:	f2a43c23          	sd	a0,-200(s0)
    80204960:	f4a43023          	sd	a0,-192(s0)
    80204964:	4581                	li	a1,0
    80204966:	4505                	li	a0,1
    80204968:	00b51c63          	bne	a0,a1,80204980 <_ZN91_$LT$core..slice..iter..Iter$LT$T$GT$$u20$as$u20$core..iter..traits..iterator..Iterator$GT$4next17h6a3c52a9982253f8E+0x4a>
    8020496c:	a009                	j	8020496e <_ZN91_$LT$core..slice..iter..Iter$LT$T$GT$$u20$as$u20$core..iter..traits..iterator..Iterator$GT$4next17h6a3c52a9982253f8E+0x38>
    8020496e:	ed043583          	ld	a1,-304(s0)
    80204972:	6588                	ld	a0,8(a1)
    80204974:	f6a43423          	sd	a0,-152(s0)
    80204978:	618c                	ld	a1,0(a1)
    8020497a:	02b50b63          	beq	a0,a1,802049b0 <_ZN91_$LT$core..slice..iter..Iter$LT$T$GT$$u20$as$u20$core..iter..traits..iterator..Iterator$GT$4next17h6a3c52a9982253f8E+0x7a>
    8020497e:	a00d                	j	802049a0 <_ZN91_$LT$core..slice..iter..Iter$LT$T$GT$$u20$as$u20$core..iter..traits..iterator..Iterator$GT$4next17h6a3c52a9982253f8E+0x6a>
    80204980:	ed043503          	ld	a0,-304(s0)
    80204984:	6108                	ld	a0,0(a0)
    80204986:	f4a43423          	sd	a0,-184(s0)
    8020498a:	eea43823          	sd	a0,-272(s0)
    8020498e:	ef043503          	ld	a0,-272(s0)
    80204992:	f4a43823          	sd	a0,-176(s0)
    80204996:	f4a43c23          	sd	a0,-168(s0)
    8020499a:	f6a43023          	sd	a0,-160(s0)
    8020499e:	bfc1                	j	8020496e <_ZN91_$LT$core..slice..iter..Iter$LT$T$GT$$u20$as$u20$core..iter..traits..iterator..Iterator$GT$4next17h6a3c52a9982253f8E+0x38>
    802049a0:	ed043503          	ld	a0,-304(s0)
    802049a4:	f6a43823          	sd	a0,-144(s0)
    802049a8:	4501                	li	a0,0
    802049aa:	00a51d63          	bne	a0,a0,802049c4 <_ZN91_$LT$core..slice..iter..Iter$LT$T$GT$$u20$as$u20$core..iter..traits..iterator..Iterator$GT$4next17h6a3c52a9982253f8E+0x8e>
    802049ae:	a8b1                	j	80204a0a <_ZN91_$LT$core..slice..iter..Iter$LT$T$GT$$u20$as$u20$core..iter..traits..iterator..Iterator$GT$4next17h6a3c52a9982253f8E+0xd4>
    802049b0:	4501                	li	a0,0
    802049b2:	eca43c23          	sd	a0,-296(s0)
    802049b6:	a009                	j	802049b8 <_ZN91_$LT$core..slice..iter..Iter$LT$T$GT$$u20$as$u20$core..iter..traits..iterator..Iterator$GT$4next17h6a3c52a9982253f8E+0x82>
    802049b8:	ed843503          	ld	a0,-296(s0)
    802049bc:	70b2                	ld	ra,296(sp)
    802049be:	7412                	ld	s0,288(sp)
    802049c0:	6155                	addi	sp,sp,304
    802049c2:	8082                	ret
    802049c4:	ed043503          	ld	a0,-304(s0)
    802049c8:	610c                	ld	a1,0(a0)
    802049ca:	fab43823          	sd	a1,-80(s0)
    802049ce:	fab43c23          	sd	a1,-72(s0)
    802049d2:	fcb43023          	sd	a1,-64(s0)
    802049d6:	fcb43423          	sd	a1,-56(s0)
    802049da:	15fd                	addi	a1,a1,-1
    802049dc:	fcb43823          	sd	a1,-48(s0)
    802049e0:	fd043583          	ld	a1,-48(s0)
    802049e4:	fcb43c23          	sd	a1,-40(s0)
    802049e8:	feb43023          	sd	a1,-32(s0)
    802049ec:	f0b43423          	sd	a1,-248(s0)
    802049f0:	f0843583          	ld	a1,-248(s0)
    802049f4:	f0b43023          	sd	a1,-256(s0)
    802049f8:	f0043583          	ld	a1,-256(s0)
    802049fc:	e10c                	sd	a1,0(a0)
    802049fe:	6508                	ld	a0,8(a0)
    80204a00:	fea43423          	sd	a0,-24(s0)
    80204a04:	eea43023          	sd	a0,-288(s0)
    80204a08:	a835                	j	80204a44 <_ZN91_$LT$core..slice..iter..Iter$LT$T$GT$$u20$as$u20$core..iter..traits..iterator..Iterator$GT$4next17h6a3c52a9982253f8E+0x10e>
    80204a0a:	ed043603          	ld	a2,-304(s0)
    80204a0e:	6608                	ld	a0,8(a2)
    80204a10:	f6a43c23          	sd	a0,-136(s0)
    80204a14:	f8a43023          	sd	a0,-128(s0)
    80204a18:	660c                	ld	a1,8(a2)
    80204a1a:	f8b43423          	sd	a1,-120(s0)
    80204a1e:	f8b43823          	sd	a1,-112(s0)
    80204a22:	f8b43c23          	sd	a1,-104(s0)
    80204a26:	05a1                	addi	a1,a1,8
    80204a28:	fab43023          	sd	a1,-96(s0)
    80204a2c:	fa043583          	ld	a1,-96(s0)
    80204a30:	fab43423          	sd	a1,-88(s0)
    80204a34:	eeb43c23          	sd	a1,-264(s0)
    80204a38:	ef843583          	ld	a1,-264(s0)
    80204a3c:	e60c                	sd	a1,8(a2)
    80204a3e:	eea43023          	sd	a0,-288(s0)
    80204a42:	a009                	j	80204a44 <_ZN91_$LT$core..slice..iter..Iter$LT$T$GT$$u20$as$u20$core..iter..traits..iterator..Iterator$GT$4next17h6a3c52a9982253f8E+0x10e>
    80204a44:	ee043503          	ld	a0,-288(s0)
    80204a48:	eca43c23          	sd	a0,-296(s0)
    80204a4c:	b7b5                	j	802049b8 <_ZN91_$LT$core..slice..iter..Iter$LT$T$GT$$u20$as$u20$core..iter..traits..iterator..Iterator$GT$4next17h6a3c52a9982253f8E+0x82>

0000000080204a4e <_ZN94_$LT$core..slice..iter..IterMut$LT$T$GT$$u20$as$u20$core..iter..traits..iterator..Iterator$GT$4next17h4c861d1a7add2c0eE>:
    80204a4e:	7169                	addi	sp,sp,-304
    80204a50:	f606                	sd	ra,296(sp)
    80204a52:	f222                	sd	s0,288(sp)
    80204a54:	1a00                	addi	s0,sp,304
    80204a56:	eca43823          	sd	a0,-304(s0)
    80204a5a:	f0a43823          	sd	a0,-240(s0)
    80204a5e:	6508                	ld	a0,8(a0)
    80204a60:	f2a43023          	sd	a0,-224(s0)
    80204a64:	f2a43423          	sd	a0,-216(s0)
    80204a68:	eea43423          	sd	a0,-280(s0)
    80204a6c:	ee843503          	ld	a0,-280(s0)
    80204a70:	f2a43823          	sd	a0,-208(s0)
    80204a74:	f2a43c23          	sd	a0,-200(s0)
    80204a78:	f4a43023          	sd	a0,-192(s0)
    80204a7c:	4581                	li	a1,0
    80204a7e:	4505                	li	a0,1
    80204a80:	00b51c63          	bne	a0,a1,80204a98 <_ZN94_$LT$core..slice..iter..IterMut$LT$T$GT$$u20$as$u20$core..iter..traits..iterator..Iterator$GT$4next17h4c861d1a7add2c0eE+0x4a>
    80204a84:	a009                	j	80204a86 <_ZN94_$LT$core..slice..iter..IterMut$LT$T$GT$$u20$as$u20$core..iter..traits..iterator..Iterator$GT$4next17h4c861d1a7add2c0eE+0x38>
    80204a86:	ed043583          	ld	a1,-304(s0)
    80204a8a:	6588                	ld	a0,8(a1)
    80204a8c:	f6a43423          	sd	a0,-152(s0)
    80204a90:	618c                	ld	a1,0(a1)
    80204a92:	02b50b63          	beq	a0,a1,80204ac8 <_ZN94_$LT$core..slice..iter..IterMut$LT$T$GT$$u20$as$u20$core..iter..traits..iterator..Iterator$GT$4next17h4c861d1a7add2c0eE+0x7a>
    80204a96:	a00d                	j	80204ab8 <_ZN94_$LT$core..slice..iter..IterMut$LT$T$GT$$u20$as$u20$core..iter..traits..iterator..Iterator$GT$4next17h4c861d1a7add2c0eE+0x6a>
    80204a98:	ed043503          	ld	a0,-304(s0)
    80204a9c:	6108                	ld	a0,0(a0)
    80204a9e:	f4a43423          	sd	a0,-184(s0)
    80204aa2:	eea43823          	sd	a0,-272(s0)
    80204aa6:	ef043503          	ld	a0,-272(s0)
    80204aaa:	f4a43823          	sd	a0,-176(s0)
    80204aae:	f4a43c23          	sd	a0,-168(s0)
    80204ab2:	f6a43023          	sd	a0,-160(s0)
    80204ab6:	bfc1                	j	80204a86 <_ZN94_$LT$core..slice..iter..IterMut$LT$T$GT$$u20$as$u20$core..iter..traits..iterator..Iterator$GT$4next17h4c861d1a7add2c0eE+0x38>
    80204ab8:	ed043503          	ld	a0,-304(s0)
    80204abc:	f6a43823          	sd	a0,-144(s0)
    80204ac0:	4501                	li	a0,0
    80204ac2:	00a51d63          	bne	a0,a0,80204adc <_ZN94_$LT$core..slice..iter..IterMut$LT$T$GT$$u20$as$u20$core..iter..traits..iterator..Iterator$GT$4next17h4c861d1a7add2c0eE+0x8e>
    80204ac6:	a8b1                	j	80204b22 <_ZN94_$LT$core..slice..iter..IterMut$LT$T$GT$$u20$as$u20$core..iter..traits..iterator..Iterator$GT$4next17h4c861d1a7add2c0eE+0xd4>
    80204ac8:	4501                	li	a0,0
    80204aca:	eca43c23          	sd	a0,-296(s0)
    80204ace:	a009                	j	80204ad0 <_ZN94_$LT$core..slice..iter..IterMut$LT$T$GT$$u20$as$u20$core..iter..traits..iterator..Iterator$GT$4next17h4c861d1a7add2c0eE+0x82>
    80204ad0:	ed843503          	ld	a0,-296(s0)
    80204ad4:	70b2                	ld	ra,296(sp)
    80204ad6:	7412                	ld	s0,288(sp)
    80204ad8:	6155                	addi	sp,sp,304
    80204ada:	8082                	ret
    80204adc:	ed043503          	ld	a0,-304(s0)
    80204ae0:	610c                	ld	a1,0(a0)
    80204ae2:	fab43823          	sd	a1,-80(s0)
    80204ae6:	fab43c23          	sd	a1,-72(s0)
    80204aea:	fcb43023          	sd	a1,-64(s0)
    80204aee:	fcb43423          	sd	a1,-56(s0)
    80204af2:	15fd                	addi	a1,a1,-1
    80204af4:	fcb43823          	sd	a1,-48(s0)
    80204af8:	fd043583          	ld	a1,-48(s0)
    80204afc:	fcb43c23          	sd	a1,-40(s0)
    80204b00:	feb43023          	sd	a1,-32(s0)
    80204b04:	f0b43423          	sd	a1,-248(s0)
    80204b08:	f0843583          	ld	a1,-248(s0)
    80204b0c:	f0b43023          	sd	a1,-256(s0)
    80204b10:	f0043583          	ld	a1,-256(s0)
    80204b14:	e10c                	sd	a1,0(a0)
    80204b16:	6508                	ld	a0,8(a0)
    80204b18:	fea43423          	sd	a0,-24(s0)
    80204b1c:	eea43023          	sd	a0,-288(s0)
    80204b20:	a835                	j	80204b5c <_ZN94_$LT$core..slice..iter..IterMut$LT$T$GT$$u20$as$u20$core..iter..traits..iterator..Iterator$GT$4next17h4c861d1a7add2c0eE+0x10e>
    80204b22:	ed043603          	ld	a2,-304(s0)
    80204b26:	6608                	ld	a0,8(a2)
    80204b28:	f6a43c23          	sd	a0,-136(s0)
    80204b2c:	f8a43023          	sd	a0,-128(s0)
    80204b30:	660c                	ld	a1,8(a2)
    80204b32:	f8b43423          	sd	a1,-120(s0)
    80204b36:	f8b43823          	sd	a1,-112(s0)
    80204b3a:	f8b43c23          	sd	a1,-104(s0)
    80204b3e:	0585                	addi	a1,a1,1
    80204b40:	fab43023          	sd	a1,-96(s0)
    80204b44:	fa043583          	ld	a1,-96(s0)
    80204b48:	fab43423          	sd	a1,-88(s0)
    80204b4c:	eeb43c23          	sd	a1,-264(s0)
    80204b50:	ef843583          	ld	a1,-264(s0)
    80204b54:	e60c                	sd	a1,8(a2)
    80204b56:	eea43023          	sd	a0,-288(s0)
    80204b5a:	a009                	j	80204b5c <_ZN94_$LT$core..slice..iter..IterMut$LT$T$GT$$u20$as$u20$core..iter..traits..iterator..Iterator$GT$4next17h4c861d1a7add2c0eE+0x10e>
    80204b5c:	ee043503          	ld	a0,-288(s0)
    80204b60:	eca43c23          	sd	a0,-296(s0)
    80204b64:	b7b5                	j	80204ad0 <_ZN94_$LT$core..slice..iter..IterMut$LT$T$GT$$u20$as$u20$core..iter..traits..iterator..Iterator$GT$4next17h4c861d1a7add2c0eE+0x82>

0000000080204b66 <_ZN81_$LT$core..str..iter..Chars$u20$as$u20$core..iter..traits..iterator..Iterator$GT$4next17h0f2b70004b43cf93E>:
    80204b66:	1101                	addi	sp,sp,-32
    80204b68:	ec06                	sd	ra,24(sp)
    80204b6a:	e822                	sd	s0,16(sp)
    80204b6c:	1000                	addi	s0,sp,32
    80204b6e:	fea43423          	sd	a0,-24(s0)
    80204b72:	0001d097          	auipc	ra,0x1d
    80204b76:	382080e7          	jalr	898(ra) # 80221ef4 <_ZN4core3str11validations15next_code_point17hb6bde000dbd2c6acE>
    80204b7a:	00022097          	auipc	ra,0x22
    80204b7e:	504080e7          	jalr	1284(ra) # 8022707e <_ZN4core6option15Option$LT$T$GT$3map17h7e535cb6e6b05124E>
    80204b82:	1502                	slli	a0,a0,0x20
    80204b84:	9101                	srli	a0,a0,0x20
    80204b86:	60e2                	ld	ra,24(sp)
    80204b88:	6442                	ld	s0,16(sp)
    80204b8a:	6105                	addi	sp,sp,32
    80204b8c:	8082                	ret

0000000080204b8e <_ZN4core3mem12maybe_uninit20MaybeUninit$LT$T$GT$16assume_init_drop17hd8e7eb9b56f75b55E>:
    80204b8e:	1101                	addi	sp,sp,-32
    80204b90:	ec06                	sd	ra,24(sp)
    80204b92:	e822                	sd	s0,16(sp)
    80204b94:	1000                	addi	s0,sp,32
    80204b96:	fea43023          	sd	a0,-32(s0)
    80204b9a:	fea43423          	sd	a0,-24(s0)
    80204b9e:	00016097          	auipc	ra,0x16
    80204ba2:	a38080e7          	jalr	-1480(ra) # 8021a5d6 <_ZN4core3ptr74drop_in_place$LT$hypocaust_2..hyp_alloc..frame_allocator..FrameTracker$GT$17hf0383eaa8ca1cf5aE>
    80204ba6:	60e2                	ld	ra,24(sp)
    80204ba8:	6442                	ld	s0,16(sp)
    80204baa:	6105                	addi	sp,sp,32
    80204bac:	8082                	ret

0000000080204bae <_ZN4core3mem12maybe_uninit20MaybeUninit$LT$T$GT$16assume_init_drop17he29d7bc2f3e1f86bE>:
    80204bae:	1101                	addi	sp,sp,-32
    80204bb0:	ec06                	sd	ra,24(sp)
    80204bb2:	e822                	sd	s0,16(sp)
    80204bb4:	1000                	addi	s0,sp,32
    80204bb6:	fea43023          	sd	a0,-32(s0)
    80204bba:	fea43423          	sd	a0,-24(s0)
    80204bbe:	60e2                	ld	ra,24(sp)
    80204bc0:	6442                	ld	s0,16(sp)
    80204bc2:	6105                	addi	sp,sp,32
    80204bc4:	8082                	ret

0000000080204bc6 <_ZN4core5array40_$LT$impl$u20$$u5b$T$u3b$$u20$N$u5d$$GT$12as_mut_slice17h5a3e0d85152c5f94E>:
    80204bc6:	1101                	addi	sp,sp,-32
    80204bc8:	ec06                	sd	ra,24(sp)
    80204bca:	e822                	sd	s0,16(sp)
    80204bcc:	1000                	addi	s0,sp,32
    80204bce:	fea43423          	sd	a0,-24(s0)
    80204bd2:	45ad                	li	a1,11
    80204bd4:	60e2                	ld	ra,24(sp)
    80204bd6:	6442                	ld	s0,16(sp)
    80204bd8:	6105                	addi	sp,sp,32
    80204bda:	8082                	ret

0000000080204bdc <_ZN4core5array40_$LT$impl$u20$$u5b$T$u3b$$u20$N$u5d$$GT$12as_mut_slice17h955d96c6418bcce6E>:
    80204bdc:	1101                	addi	sp,sp,-32
    80204bde:	ec06                	sd	ra,24(sp)
    80204be0:	e822                	sd	s0,16(sp)
    80204be2:	1000                	addi	s0,sp,32
    80204be4:	fea43423          	sd	a0,-24(s0)
    80204be8:	45ad                	li	a1,11
    80204bea:	60e2                	ld	ra,24(sp)
    80204bec:	6442                	ld	s0,16(sp)
    80204bee:	6105                	addi	sp,sp,32
    80204bf0:	8082                	ret

0000000080204bf2 <_ZN4core5array40_$LT$impl$u20$$u5b$T$u3b$$u20$N$u5d$$GT$12as_mut_slice17h9ccabc0bd4a7794aE>:
    80204bf2:	1101                	addi	sp,sp,-32
    80204bf4:	ec06                	sd	ra,24(sp)
    80204bf6:	e822                	sd	s0,16(sp)
    80204bf8:	1000                	addi	s0,sp,32
    80204bfa:	fea43423          	sd	a0,-24(s0)
    80204bfe:	45b1                	li	a1,12
    80204c00:	60e2                	ld	ra,24(sp)
    80204c02:	6442                	ld	s0,16(sp)
    80204c04:	6105                	addi	sp,sp,32
    80204c06:	8082                	ret

0000000080204c08 <_ZN4core5array40_$LT$impl$u20$$u5b$T$u3b$$u20$N$u5d$$GT$12as_mut_slice17he18d4a9a36e5dbf5E>:
    80204c08:	1101                	addi	sp,sp,-32
    80204c0a:	ec06                	sd	ra,24(sp)
    80204c0c:	e822                	sd	s0,16(sp)
    80204c0e:	1000                	addi	s0,sp,32
    80204c10:	fea43423          	sd	a0,-24(s0)
    80204c14:	45b1                	li	a1,12
    80204c16:	60e2                	ld	ra,24(sp)
    80204c18:	6442                	ld	s0,16(sp)
    80204c1a:	6105                	addi	sp,sp,32
    80204c1c:	8082                	ret

0000000080204c1e <_ZN4core5array40_$LT$impl$u20$$u5b$T$u3b$$u20$N$u5d$$GT$12as_mut_slice17hf29157b43764e600E>:
    80204c1e:	1101                	addi	sp,sp,-32
    80204c20:	ec06                	sd	ra,24(sp)
    80204c22:	e822                	sd	s0,16(sp)
    80204c24:	1000                	addi	s0,sp,32
    80204c26:	fea43423          	sd	a0,-24(s0)
    80204c2a:	45ad                	li	a1,11
    80204c2c:	60e2                	ld	ra,24(sp)
    80204c2e:	6442                	ld	s0,16(sp)
    80204c30:	6105                	addi	sp,sp,32
    80204c32:	8082                	ret

0000000080204c34 <_ZN4core3ptr7mut_ptr31_$LT$impl$u20$$BP$mut$u20$T$GT$6as_mut17h53ef4952c03bb6abE>:
    80204c34:	715d                	addi	sp,sp,-80
    80204c36:	e486                	sd	ra,72(sp)
    80204c38:	e0a2                	sd	s0,64(sp)
    80204c3a:	0880                	addi	s0,sp,80
    80204c3c:	faa43823          	sd	a0,-80(s0)
    80204c40:	fca43423          	sd	a0,-56(s0)
    80204c44:	fca43823          	sd	a0,-48(s0)
    80204c48:	fca43023          	sd	a0,-64(s0)
    80204c4c:	fc043503          	ld	a0,-64(s0)
    80204c50:	fca43c23          	sd	a0,-40(s0)
    80204c54:	fea43023          	sd	a0,-32(s0)
    80204c58:	fea43423          	sd	a0,-24(s0)
    80204c5c:	fe843503          	ld	a0,-24(s0)
    80204c60:	4581                	li	a1,0
    80204c62:	00b51763          	bne	a0,a1,80204c70 <_ZN4core3ptr7mut_ptr31_$LT$impl$u20$$BP$mut$u20$T$GT$6as_mut17h53ef4952c03bb6abE+0x3c>
    80204c66:	a009                	j	80204c68 <_ZN4core3ptr7mut_ptr31_$LT$impl$u20$$BP$mut$u20$T$GT$6as_mut17h53ef4952c03bb6abE+0x34>
    80204c68:	4501                	li	a0,0
    80204c6a:	faa43c23          	sd	a0,-72(s0)
    80204c6e:	a031                	j	80204c7a <_ZN4core3ptr7mut_ptr31_$LT$impl$u20$$BP$mut$u20$T$GT$6as_mut17h53ef4952c03bb6abE+0x46>
    80204c70:	fb043503          	ld	a0,-80(s0)
    80204c74:	faa43c23          	sd	a0,-72(s0)
    80204c78:	a009                	j	80204c7a <_ZN4core3ptr7mut_ptr31_$LT$impl$u20$$BP$mut$u20$T$GT$6as_mut17h53ef4952c03bb6abE+0x46>
    80204c7a:	fb843503          	ld	a0,-72(s0)
    80204c7e:	60a6                	ld	ra,72(sp)
    80204c80:	6406                	ld	s0,64(sp)
    80204c82:	6161                	addi	sp,sp,80
    80204c84:	8082                	ret

0000000080204c86 <_ZN11hypocaust_29hyp_alloc15frame_allocator12FrameTracker3new17h23cc2086a602b52bE>:
    80204c86:	715d                	addi	sp,sp,-80
    80204c88:	e486                	sd	ra,72(sp)
    80204c8a:	e0a2                	sd	s0,64(sp)
    80204c8c:	0880                	addi	s0,sp,80
    80204c8e:	faa43823          	sd	a0,-80(s0)
    80204c92:	fb040513          	addi	a0,s0,-80
    80204c96:	00005097          	auipc	ra,0x5
    80204c9a:	66e080e7          	jalr	1646(ra) # 8020a304 <_ZN11hypocaust_210page_table7address11PhysPageNum15get_bytes_array17ha6c170c590057c4bE>
    80204c9e:	fca43c23          	sd	a0,-40(s0)
    80204ca2:	feb43023          	sd	a1,-32(s0)
    80204ca6:	00000097          	auipc	ra,0x0
    80204caa:	ac4080e7          	jalr	-1340(ra) # 8020476a <_ZN4core5slice4iter95_$LT$impl$u20$core..iter..traits..collect..IntoIterator$u20$for$u20$$RF$mut$u20$$u5b$T$u5d$$GT$9into_iter17h2ba1b98f7a295068E>
    80204cae:	fca43023          	sd	a0,-64(s0)
    80204cb2:	fcb43423          	sd	a1,-56(s0)
    80204cb6:	a009                	j	80204cb8 <_ZN11hypocaust_29hyp_alloc15frame_allocator12FrameTracker3new17h23cc2086a602b52bE+0x32>
    80204cb8:	fc040513          	addi	a0,s0,-64
    80204cbc:	00000097          	auipc	ra,0x0
    80204cc0:	d92080e7          	jalr	-622(ra) # 80204a4e <_ZN94_$LT$core..slice..iter..IterMut$LT$T$GT$$u20$as$u20$core..iter..traits..iterator..Iterator$GT$4next17h4c861d1a7add2c0eE>
    80204cc4:	fca43823          	sd	a0,-48(s0)
    80204cc8:	fd043503          	ld	a0,-48(s0)
    80204ccc:	4581                	li	a1,0
    80204cce:	00b51d63          	bne	a0,a1,80204ce8 <_ZN11hypocaust_29hyp_alloc15frame_allocator12FrameTracker3new17h23cc2086a602b52bE+0x62>
    80204cd2:	a009                	j	80204cd4 <_ZN11hypocaust_29hyp_alloc15frame_allocator12FrameTracker3new17h23cc2086a602b52bE+0x4e>
    80204cd4:	fb043503          	ld	a0,-80(s0)
    80204cd8:	faa43c23          	sd	a0,-72(s0)
    80204cdc:	fb843503          	ld	a0,-72(s0)
    80204ce0:	60a6                	ld	ra,72(sp)
    80204ce2:	6406                	ld	s0,64(sp)
    80204ce4:	6161                	addi	sp,sp,80
    80204ce6:	8082                	ret
    80204ce8:	fd043583          	ld	a1,-48(s0)
    80204cec:	feb43423          	sd	a1,-24(s0)
    80204cf0:	4501                	li	a0,0
    80204cf2:	00a58023          	sb	a0,0(a1)
    80204cf6:	b7c9                	j	80204cb8 <_ZN11hypocaust_29hyp_alloc15frame_allocator12FrameTracker3new17h23cc2086a602b52bE+0x32>

0000000080204cf8 <_ZN11hypocaust_29hyp_alloc15frame_allocator19StackFrameAllocator4init17h29c01439373a6822E>:
    80204cf8:	7179                	addi	sp,sp,-48
    80204cfa:	f406                	sd	ra,40(sp)
    80204cfc:	f022                	sd	s0,32(sp)
    80204cfe:	1800                	addi	s0,sp,48
    80204d00:	fca43c23          	sd	a0,-40(s0)
    80204d04:	feb43023          	sd	a1,-32(s0)
    80204d08:	fec43423          	sd	a2,-24(s0)
    80204d0c:	e10c                	sd	a1,0(a0)
    80204d0e:	e510                	sd	a2,8(a0)
    80204d10:	70a2                	ld	ra,40(sp)
    80204d12:	7402                	ld	s0,32(sp)
    80204d14:	6145                	addi	sp,sp,48
    80204d16:	8082                	ret

0000000080204d18 <_ZN136_$LT$hypocaust_2..hyp_alloc..frame_allocator..StackFrameAllocator$u20$as$u20$hypocaust_2..hyp_alloc..frame_allocator..FrameAllocator$GT$3new17h61512aa92d1bd2c9E>:
    80204d18:	7179                	addi	sp,sp,-48
    80204d1a:	f406                	sd	ra,40(sp)
    80204d1c:	f022                	sd	s0,32(sp)
    80204d1e:	1800                	addi	s0,sp,48
    80204d20:	fca43823          	sd	a0,-48(s0)
    80204d24:	fd840513          	addi	a0,s0,-40
    80204d28:	ffffe097          	auipc	ra,0xffffe
    80204d2c:	f3a080e7          	jalr	-198(ra) # 80202c62 <_ZN5alloc3vec12Vec$LT$T$GT$3new17h780392aca4e0b12fE>
    80204d30:	fd043583          	ld	a1,-48(s0)
    80204d34:	4501                	li	a0,0
    80204d36:	e188                	sd	a0,0(a1)
    80204d38:	e588                	sd	a0,8(a1)
    80204d3a:	fe843503          	ld	a0,-24(s0)
    80204d3e:	f188                	sd	a0,32(a1)
    80204d40:	fe043503          	ld	a0,-32(s0)
    80204d44:	ed88                	sd	a0,24(a1)
    80204d46:	fd843503          	ld	a0,-40(s0)
    80204d4a:	e988                	sd	a0,16(a1)
    80204d4c:	70a2                	ld	ra,40(sp)
    80204d4e:	7402                	ld	s0,32(sp)
    80204d50:	6145                	addi	sp,sp,48
    80204d52:	8082                	ret

0000000080204d54 <_ZN136_$LT$hypocaust_2..hyp_alloc..frame_allocator..StackFrameAllocator$u20$as$u20$hypocaust_2..hyp_alloc..frame_allocator..FrameAllocator$GT$5alloc17h3619457f73399338E>:
    80204d54:	711d                	addi	sp,sp,-96
    80204d56:	ec86                	sd	ra,88(sp)
    80204d58:	e8a2                	sd	s0,80(sp)
    80204d5a:	1080                	addi	s0,sp,96
    80204d5c:	faa43c23          	sd	a0,-72(s0)
    80204d60:	fea43023          	sd	a0,-32(s0)
    80204d64:	0541                	addi	a0,a0,16
    80204d66:	ffffe097          	auipc	ra,0xffffe
    80204d6a:	ffc080e7          	jalr	-4(ra) # 80202d62 <_ZN5alloc3vec16Vec$LT$T$C$A$GT$3pop17he77792f0946c1c77E>
    80204d6e:	fcb43c23          	sd	a1,-40(s0)
    80204d72:	fca43823          	sd	a0,-48(s0)
    80204d76:	fd043503          	ld	a0,-48(s0)
    80204d7a:	4581                	li	a1,0
    80204d7c:	02b50163          	beq	a0,a1,80204d9e <_ZN136_$LT$hypocaust_2..hyp_alloc..frame_allocator..StackFrameAllocator$u20$as$u20$hypocaust_2..hyp_alloc..frame_allocator..FrameAllocator$GT$5alloc17h3619457f73399338E+0x4a>
    80204d80:	a009                	j	80204d82 <_ZN136_$LT$hypocaust_2..hyp_alloc..frame_allocator..StackFrameAllocator$u20$as$u20$hypocaust_2..hyp_alloc..frame_allocator..FrameAllocator$GT$5alloc17h3619457f73399338E+0x2e>
    80204d82:	fd843503          	ld	a0,-40(s0)
    80204d86:	fea43423          	sd	a0,-24(s0)
    80204d8a:	00008097          	auipc	ra,0x8
    80204d8e:	eb8080e7          	jalr	-328(ra) # 8020cc42 <_ZN50_$LT$T$u20$as$u20$core..convert..Into$LT$U$GT$$GT$4into17h20b5debbcfd8f870E>
    80204d92:	fca43423          	sd	a0,-56(s0)
    80204d96:	4505                	li	a0,1
    80204d98:	fca43023          	sd	a0,-64(s0)
    80204d9c:	a035                	j	80204dc8 <_ZN136_$LT$hypocaust_2..hyp_alloc..frame_allocator..StackFrameAllocator$u20$as$u20$hypocaust_2..hyp_alloc..frame_allocator..FrameAllocator$GT$5alloc17h3619457f73399338E+0x74>
    80204d9e:	fb843583          	ld	a1,-72(s0)
    80204da2:	6188                	ld	a0,0(a1)
    80204da4:	658c                	ld	a1,8(a1)
    80204da6:	00b50d63          	beq	a0,a1,80204dc0 <_ZN136_$LT$hypocaust_2..hyp_alloc..frame_allocator..StackFrameAllocator$u20$as$u20$hypocaust_2..hyp_alloc..frame_allocator..FrameAllocator$GT$5alloc17h3619457f73399338E+0x6c>
    80204daa:	a009                	j	80204dac <_ZN136_$LT$hypocaust_2..hyp_alloc..frame_allocator..StackFrameAllocator$u20$as$u20$hypocaust_2..hyp_alloc..frame_allocator..FrameAllocator$GT$5alloc17h3619457f73399338E+0x58>
    80204dac:	fb843503          	ld	a0,-72(s0)
    80204db0:	6108                	ld	a0,0(a0)
    80204db2:	0505                	addi	a0,a0,1
    80204db4:	faa43823          	sd	a0,-80(s0)
    80204db8:	4581                	li	a1,0
    80204dba:	02b50d63          	beq	a0,a1,80204df4 <.LBB3_10>
    80204dbe:	a829                	j	80204dd8 <_ZN136_$LT$hypocaust_2..hyp_alloc..frame_allocator..StackFrameAllocator$u20$as$u20$hypocaust_2..hyp_alloc..frame_allocator..FrameAllocator$GT$5alloc17h3619457f73399338E+0x84>
    80204dc0:	4501                	li	a0,0
    80204dc2:	fca43023          	sd	a0,-64(s0)
    80204dc6:	a009                	j	80204dc8 <_ZN136_$LT$hypocaust_2..hyp_alloc..frame_allocator..StackFrameAllocator$u20$as$u20$hypocaust_2..hyp_alloc..frame_allocator..FrameAllocator$GT$5alloc17h3619457f73399338E+0x74>
    80204dc8:	fc043503          	ld	a0,-64(s0)
    80204dcc:	fc843583          	ld	a1,-56(s0)
    80204dd0:	60e6                	ld	ra,88(sp)
    80204dd2:	6446                	ld	s0,80(sp)
    80204dd4:	6125                	addi	sp,sp,96
    80204dd6:	8082                	ret
    80204dd8:	fb843503          	ld	a0,-72(s0)
    80204ddc:	fb043583          	ld	a1,-80(s0)
    80204de0:	e10c                	sd	a1,0(a0)
    80204de2:	6108                	ld	a0,0(a0)
    80204de4:	fff50593          	addi	a1,a0,-1
    80204de8:	fab43423          	sd	a1,-88(s0)
    80204dec:	4581                	li	a1,0
    80204dee:	02b50d63          	beq	a0,a1,80204e28 <.LBB3_12>
    80204df2:	a839                	j	80204e10 <.LBB3_11+0x14>

0000000080204df4 <.LBB3_10>:
    80204df4:	0002c517          	auipc	a0,0x2c
    80204df8:	66c50513          	addi	a0,a0,1644 # 80231460 <str.0>

0000000080204dfc <.LBB3_11>:
    80204dfc:	0002c617          	auipc	a2,0x2c
    80204e00:	64c60613          	addi	a2,a2,1612 # 80231448 <.L__unnamed_1>
    80204e04:	45f1                	li	a1,28
    80204e06:	00029097          	auipc	ra,0x29
    80204e0a:	baa080e7          	jalr	-1110(ra) # 8022d9b0 <_ZN4core9panicking5panic17h0ed902ae04a4e669E>
    80204e0e:	0000                	unimp
    80204e10:	fa843503          	ld	a0,-88(s0)
    80204e14:	00008097          	auipc	ra,0x8
    80204e18:	e2e080e7          	jalr	-466(ra) # 8020cc42 <_ZN50_$LT$T$u20$as$u20$core..convert..Into$LT$U$GT$$GT$4into17h20b5debbcfd8f870E>
    80204e1c:	fca43423          	sd	a0,-56(s0)
    80204e20:	4505                	li	a0,1
    80204e22:	fca43023          	sd	a0,-64(s0)
    80204e26:	b74d                	j	80204dc8 <_ZN136_$LT$hypocaust_2..hyp_alloc..frame_allocator..StackFrameAllocator$u20$as$u20$hypocaust_2..hyp_alloc..frame_allocator..FrameAllocator$GT$5alloc17h3619457f73399338E+0x74>

0000000080204e28 <.LBB3_12>:
    80204e28:	0002c517          	auipc	a0,0x2c
    80204e2c:	67850513          	addi	a0,a0,1656 # 802314a0 <str.1>

0000000080204e30 <.LBB3_13>:
    80204e30:	0002c617          	auipc	a2,0x2c
    80204e34:	65060613          	addi	a2,a2,1616 # 80231480 <.L__unnamed_2>
    80204e38:	02100593          	li	a1,33
    80204e3c:	00029097          	auipc	ra,0x29
    80204e40:	b74080e7          	jalr	-1164(ra) # 8022d9b0 <_ZN4core9panicking5panic17h0ed902ae04a4e669E>
	...

0000000080204e46 <_ZN136_$LT$hypocaust_2..hyp_alloc..frame_allocator..StackFrameAllocator$u20$as$u20$hypocaust_2..hyp_alloc..frame_allocator..FrameAllocator$GT$7dealloc17hfb4371dcc502e76cE>:
    80204e46:	7135                	addi	sp,sp,-160
    80204e48:	ed06                	sd	ra,152(sp)
    80204e4a:	e922                	sd	s0,144(sp)
    80204e4c:	1100                	addi	s0,sp,160
    80204e4e:	f6b43423          	sd	a1,-152(s0)
    80204e52:	85aa                	mv	a1,a0
    80204e54:	f6843503          	ld	a0,-152(s0)
    80204e58:	f6b43823          	sd	a1,-144(s0)
    80204e5c:	feb43023          	sd	a1,-32(s0)
    80204e60:	fea43423          	sd	a0,-24(s0)
    80204e64:	f6a43c23          	sd	a0,-136(s0)
    80204e68:	f7843503          	ld	a0,-136(s0)
    80204e6c:	618c                	ld	a1,0(a1)
    80204e6e:	04b57163          	bgeu	a0,a1,80204eb0 <_ZN136_$LT$hypocaust_2..hyp_alloc..frame_allocator..StackFrameAllocator$u20$as$u20$hypocaust_2..hyp_alloc..frame_allocator..FrameAllocator$GT$7dealloc17hfb4371dcc502e76cE+0x6a>
    80204e72:	a009                	j	80204e74 <_ZN136_$LT$hypocaust_2..hyp_alloc..frame_allocator..StackFrameAllocator$u20$as$u20$hypocaust_2..hyp_alloc..frame_allocator..FrameAllocator$GT$7dealloc17hfb4371dcc502e76cE+0x2e>
    80204e74:	f7043503          	ld	a0,-144(s0)
    80204e78:	0541                	addi	a0,a0,16
    80204e7a:	ffffe097          	auipc	ra,0xffffe
    80204e7e:	394080e7          	jalr	916(ra) # 8020320e <_ZN72_$LT$alloc..vec..Vec$LT$T$C$A$GT$$u20$as$u20$core..ops..deref..Deref$GT$5deref17h79ea5eabf686e2adE>
    80204e82:	00016097          	auipc	ra,0x16
    80204e86:	298080e7          	jalr	664(ra) # 8021b11a <_ZN4core5slice29_$LT$impl$u20$$u5b$T$u5d$$GT$4iter17hcd8645ebba704b7bE>
    80204e8a:	f8b43823          	sd	a1,-112(s0)
    80204e8e:	f8a43423          	sd	a0,-120(s0)
    80204e92:	f7840513          	addi	a0,s0,-136
    80204e96:	f8a43c23          	sd	a0,-104(s0)
    80204e9a:	f9843583          	ld	a1,-104(s0)
    80204e9e:	f8840513          	addi	a0,s0,-120
    80204ea2:	00000097          	auipc	ra,0x0
    80204ea6:	908080e7          	jalr	-1784(ra) # 802047aa <_ZN91_$LT$core..slice..iter..Iter$LT$T$GT$$u20$as$u20$core..iter..traits..iterator..Iterator$GT$3any17h1c2dccc00726e5ddE>
    80204eaa:	f8a403a3          	sb	a0,-121(s0)
    80204eae:	a029                	j	80204eb8 <_ZN136_$LT$hypocaust_2..hyp_alloc..frame_allocator..StackFrameAllocator$u20$as$u20$hypocaust_2..hyp_alloc..frame_allocator..FrameAllocator$GT$7dealloc17hfb4371dcc502e76cE+0x72>
    80204eb0:	4505                	li	a0,1
    80204eb2:	f8a403a3          	sb	a0,-121(s0)
    80204eb6:	a009                	j	80204eb8 <_ZN136_$LT$hypocaust_2..hyp_alloc..frame_allocator..StackFrameAllocator$u20$as$u20$hypocaust_2..hyp_alloc..frame_allocator..FrameAllocator$GT$7dealloc17hfb4371dcc502e76cE+0x72>
    80204eb8:	f8744503          	lbu	a0,-121(s0)
    80204ebc:	8905                	andi	a0,a0,1
    80204ebe:	4581                	li	a1,0
    80204ec0:	02b51063          	bne	a0,a1,80204ee0 <_ZN136_$LT$hypocaust_2..hyp_alloc..frame_allocator..StackFrameAllocator$u20$as$u20$hypocaust_2..hyp_alloc..frame_allocator..FrameAllocator$GT$7dealloc17hfb4371dcc502e76cE+0x9a>
    80204ec4:	a009                	j	80204ec6 <_ZN136_$LT$hypocaust_2..hyp_alloc..frame_allocator..StackFrameAllocator$u20$as$u20$hypocaust_2..hyp_alloc..frame_allocator..FrameAllocator$GT$7dealloc17hfb4371dcc502e76cE+0x80>
    80204ec6:	f7043503          	ld	a0,-144(s0)
    80204eca:	0541                	addi	a0,a0,16
    80204ecc:	f7843583          	ld	a1,-136(s0)
    80204ed0:	ffffe097          	auipc	ra,0xffffe
    80204ed4:	f4c080e7          	jalr	-180(ra) # 80202e1c <_ZN5alloc3vec16Vec$LT$T$C$A$GT$4push17h24c53e626b5c7286E>
    80204ed8:	60ea                	ld	ra,152(sp)
    80204eda:	644a                	ld	s0,144(sp)
    80204edc:	610d                	addi	sp,sp,160
    80204ede:	8082                	ret
    80204ee0:	f7840513          	addi	a0,s0,-136
    80204ee4:	0001d097          	auipc	ra,0x1d
    80204ee8:	fca080e7          	jalr	-54(ra) # 80221eae <_ZN4core3fmt10ArgumentV113new_lower_hex17hf99418483649d21eE>
    80204eec:	fca43823          	sd	a0,-48(s0)
    80204ef0:	fcb43c23          	sd	a1,-40(s0)

0000000080204ef4 <.LBB4_6>:
    80204ef4:	0002c597          	auipc	a1,0x2c
    80204ef8:	5f458593          	addi	a1,a1,1524 # 802314e8 <.L__unnamed_3>

0000000080204efc <.LBB4_7>:
    80204efc:	0002c797          	auipc	a5,0x2c
    80204f00:	60c78793          	addi	a5,a5,1548 # 80231508 <.L__unnamed_4>
    80204f04:	fa040513          	addi	a0,s0,-96
    80204f08:	f6a43023          	sd	a0,-160(s0)
    80204f0c:	4609                	li	a2,2
    80204f0e:	fd040693          	addi	a3,s0,-48
    80204f12:	4805                	li	a6,1
    80204f14:	8742                	mv	a4,a6
    80204f16:	00018097          	auipc	ra,0x18
    80204f1a:	45c080e7          	jalr	1116(ra) # 8021d372 <_ZN4core3fmt9Arguments16new_v1_formatted17h6cadfd8de4951621E>
    80204f1e:	f6043503          	ld	a0,-160(s0)

0000000080204f22 <.LBB4_8>:
    80204f22:	0002c597          	auipc	a1,0x2c
    80204f26:	61e58593          	addi	a1,a1,1566 # 80231540 <.L__unnamed_5>
    80204f2a:	00029097          	auipc	ra,0x29
    80204f2e:	a58080e7          	jalr	-1448(ra) # 8022d982 <_ZN4core9panicking9panic_fmt17hdc67c01c17e684eeE>
	...

0000000080204f34 <_ZN11hypocaust_29hyp_alloc15frame_allocator20init_frame_allocator17hbd02ce1944c8af6bE>:
    80204f34:	715d                	addi	sp,sp,-80
    80204f36:	e486                	sd	ra,72(sp)
    80204f38:	e0a2                	sd	s0,64(sp)
    80204f3a:	0880                	addi	s0,sp,80

0000000080204f3c <.LBB5_1>:
    80204f3c:	0002c517          	auipc	a0,0x2c
    80204f40:	61c50513          	addi	a0,a0,1564 # 80231558 <.L__unnamed_7>
    80204f44:	00000097          	auipc	ra,0x0
    80204f48:	160080e7          	jalr	352(ra) # 802050a4 <_ZN100_$LT$hypocaust_2..hyp_alloc..frame_allocator..FRAME_ALLOCATOR$u20$as$u20$core..ops..deref..Deref$GT$5deref17hb6ffe4e950ecddceE>
    80204f4c:	00001097          	auipc	ra,0x1
    80204f50:	b26080e7          	jalr	-1242(ra) # 80205a72 <_ZN11hypocaust_24sync2up19UPSafeCell$LT$T$GT$16exclusive_access17h6fbf7e52d4967525E>
    80204f54:	fcb43c23          	sd	a1,-40(s0)
    80204f58:	fca43823          	sd	a0,-48(s0)
    80204f5c:	fd040513          	addi	a0,s0,-48
    80204f60:	fca43423          	sd	a0,-56(s0)
    80204f64:	fffff097          	auipc	ra,0xfffff
    80204f68:	a58080e7          	jalr	-1448(ra) # 802039bc <_ZN74_$LT$core..cell..RefMut$LT$T$GT$$u20$as$u20$core..ops..deref..DerefMut$GT$9deref_mut17hcbef18989e56c38cE>
    80204f6c:	fca43023          	sd	a0,-64(s0)

0000000080204f70 <.LBB5_2>:
    80204f70:	00c33517          	auipc	a0,0xc33
    80204f74:	91050513          	addi	a0,a0,-1776 # 80e37880 <einitrd>
    80204f78:	00005097          	auipc	ra,0x5
    80204f7c:	f36080e7          	jalr	-202(ra) # 80209eae <_ZN95_$LT$hypocaust_2..page_table..address..PhysAddr$u20$as$u20$core..convert..From$LT$usize$GT$$GT$4from17h7c886ef85373442dE>
    80204f80:	fea43023          	sd	a0,-32(s0)
    80204f84:	fe040513          	addi	a0,s0,-32
    80204f88:	00005097          	auipc	ra,0x5
    80204f8c:	136080e7          	jalr	310(ra) # 8020a0be <_ZN11hypocaust_210page_table7address8PhysAddr4ceil17h69de3f4508a1c392E>
    80204f90:	faa43c23          	sd	a0,-72(s0)
    80204f94:	4545                	li	a0,17
    80204f96:	056e                	slli	a0,a0,0x1b
    80204f98:	00005097          	auipc	ra,0x5
    80204f9c:	f16080e7          	jalr	-234(ra) # 80209eae <_ZN95_$LT$hypocaust_2..page_table..address..PhysAddr$u20$as$u20$core..convert..From$LT$usize$GT$$GT$4from17h7c886ef85373442dE>
    80204fa0:	fea43423          	sd	a0,-24(s0)
    80204fa4:	fe840513          	addi	a0,s0,-24
    80204fa8:	00005097          	auipc	ra,0x5
    80204fac:	0f6080e7          	jalr	246(ra) # 8020a09e <_ZN11hypocaust_210page_table7address8PhysAddr5floor17ha00fb4e04918d147E>
    80204fb0:	fb843583          	ld	a1,-72(s0)
    80204fb4:	862a                	mv	a2,a0
    80204fb6:	fc043503          	ld	a0,-64(s0)
    80204fba:	00000097          	auipc	ra,0x0
    80204fbe:	d3e080e7          	jalr	-706(ra) # 80204cf8 <_ZN11hypocaust_29hyp_alloc15frame_allocator19StackFrameAllocator4init17h29c01439373a6822E>
    80204fc2:	fc843503          	ld	a0,-56(s0)
    80204fc6:	00015097          	auipc	ra,0x15
    80204fca:	222080e7          	jalr	546(ra) # 8021a1e8 <_ZN4core3ptr107drop_in_place$LT$core..cell..RefMut$LT$hypocaust_2..hyp_alloc..frame_allocator..StackFrameAllocator$GT$$GT$17h1c4436bac69c3012E>
    80204fce:	60a6                	ld	ra,72(sp)
    80204fd0:	6406                	ld	s0,64(sp)
    80204fd2:	6161                	addi	sp,sp,80
    80204fd4:	8082                	ret

0000000080204fd6 <_ZN11hypocaust_29hyp_alloc15frame_allocator11frame_alloc17hf0bd79dfd5bb1999E>:
    80204fd6:	7139                	addi	sp,sp,-64
    80204fd8:	fc06                	sd	ra,56(sp)
    80204fda:	f822                	sd	s0,48(sp)
    80204fdc:	0080                	addi	s0,sp,64

0000000080204fde <.LBB6_1>:
    80204fde:	0002c517          	auipc	a0,0x2c
    80204fe2:	57a50513          	addi	a0,a0,1402 # 80231558 <.L__unnamed_7>
    80204fe6:	00000097          	auipc	ra,0x0
    80204fea:	0be080e7          	jalr	190(ra) # 802050a4 <_ZN100_$LT$hypocaust_2..hyp_alloc..frame_allocator..FRAME_ALLOCATOR$u20$as$u20$core..ops..deref..Deref$GT$5deref17hb6ffe4e950ecddceE>
    80204fee:	00001097          	auipc	ra,0x1
    80204ff2:	a84080e7          	jalr	-1404(ra) # 80205a72 <_ZN11hypocaust_24sync2up19UPSafeCell$LT$T$GT$16exclusive_access17h6fbf7e52d4967525E>
    80204ff6:	feb43423          	sd	a1,-24(s0)
    80204ffa:	fea43023          	sd	a0,-32(s0)
    80204ffe:	fe040513          	addi	a0,s0,-32
    80205002:	fca43423          	sd	a0,-56(s0)
    80205006:	fffff097          	auipc	ra,0xfffff
    8020500a:	9b6080e7          	jalr	-1610(ra) # 802039bc <_ZN74_$LT$core..cell..RefMut$LT$T$GT$$u20$as$u20$core..ops..deref..DerefMut$GT$9deref_mut17hcbef18989e56c38cE>
    8020500e:	00000097          	auipc	ra,0x0
    80205012:	d46080e7          	jalr	-698(ra) # 80204d54 <_ZN136_$LT$hypocaust_2..hyp_alloc..frame_allocator..StackFrameAllocator$u20$as$u20$hypocaust_2..hyp_alloc..frame_allocator..FrameAllocator$GT$5alloc17h3619457f73399338E>
    80205016:	fffff097          	auipc	ra,0xfffff
    8020501a:	e9c080e7          	jalr	-356(ra) # 80203eb2 <_ZN4core6option15Option$LT$T$GT$3map17ha46a478cd13d1edaE>
    8020501e:	862a                	mv	a2,a0
    80205020:	fc843503          	ld	a0,-56(s0)
    80205024:	fcc43823          	sd	a2,-48(s0)
    80205028:	fcb43c23          	sd	a1,-40(s0)
    8020502c:	00015097          	auipc	ra,0x15
    80205030:	1bc080e7          	jalr	444(ra) # 8021a1e8 <_ZN4core3ptr107drop_in_place$LT$core..cell..RefMut$LT$hypocaust_2..hyp_alloc..frame_allocator..StackFrameAllocator$GT$$GT$17h1c4436bac69c3012E>
    80205034:	fd043503          	ld	a0,-48(s0)
    80205038:	fd843583          	ld	a1,-40(s0)
    8020503c:	70e2                	ld	ra,56(sp)
    8020503e:	7442                	ld	s0,48(sp)
    80205040:	6121                	addi	sp,sp,64
    80205042:	8082                	ret

0000000080205044 <_ZN11hypocaust_29hyp_alloc15frame_allocator13frame_dealloc17h1122f5a7841e5161E>:
    80205044:	7139                	addi	sp,sp,-64
    80205046:	fc06                	sd	ra,56(sp)
    80205048:	f822                	sd	s0,48(sp)
    8020504a:	0080                	addi	s0,sp,64
    8020504c:	fca43423          	sd	a0,-56(s0)
    80205050:	fea43423          	sd	a0,-24(s0)

0000000080205054 <.LBB7_1>:
    80205054:	0002c517          	auipc	a0,0x2c
    80205058:	50450513          	addi	a0,a0,1284 # 80231558 <.L__unnamed_7>
    8020505c:	00000097          	auipc	ra,0x0
    80205060:	048080e7          	jalr	72(ra) # 802050a4 <_ZN100_$LT$hypocaust_2..hyp_alloc..frame_allocator..FRAME_ALLOCATOR$u20$as$u20$core..ops..deref..Deref$GT$5deref17hb6ffe4e950ecddceE>
    80205064:	00001097          	auipc	ra,0x1
    80205068:	a0e080e7          	jalr	-1522(ra) # 80205a72 <_ZN11hypocaust_24sync2up19UPSafeCell$LT$T$GT$16exclusive_access17h6fbf7e52d4967525E>
    8020506c:	feb43023          	sd	a1,-32(s0)
    80205070:	fca43c23          	sd	a0,-40(s0)
    80205074:	fd840513          	addi	a0,s0,-40
    80205078:	fca43823          	sd	a0,-48(s0)
    8020507c:	fffff097          	auipc	ra,0xfffff
    80205080:	940080e7          	jalr	-1728(ra) # 802039bc <_ZN74_$LT$core..cell..RefMut$LT$T$GT$$u20$as$u20$core..ops..deref..DerefMut$GT$9deref_mut17hcbef18989e56c38cE>
    80205084:	fc843583          	ld	a1,-56(s0)
    80205088:	00000097          	auipc	ra,0x0
    8020508c:	dbe080e7          	jalr	-578(ra) # 80204e46 <_ZN136_$LT$hypocaust_2..hyp_alloc..frame_allocator..StackFrameAllocator$u20$as$u20$hypocaust_2..hyp_alloc..frame_allocator..FrameAllocator$GT$7dealloc17hfb4371dcc502e76cE>
    80205090:	fd043503          	ld	a0,-48(s0)
    80205094:	00015097          	auipc	ra,0x15
    80205098:	154080e7          	jalr	340(ra) # 8021a1e8 <_ZN4core3ptr107drop_in_place$LT$core..cell..RefMut$LT$hypocaust_2..hyp_alloc..frame_allocator..StackFrameAllocator$GT$$GT$17h1c4436bac69c3012E>
    8020509c:	70e2                	ld	ra,56(sp)
    8020509e:	7442                	ld	s0,48(sp)
    802050a0:	6121                	addi	sp,sp,64
    802050a2:	8082                	ret

00000000802050a4 <_ZN100_$LT$hypocaust_2..hyp_alloc..frame_allocator..FRAME_ALLOCATOR$u20$as$u20$core..ops..deref..Deref$GT$5deref17hb6ffe4e950ecddceE>:
    802050a4:	1101                	addi	sp,sp,-32
    802050a6:	ec06                	sd	ra,24(sp)
    802050a8:	e822                	sd	s0,16(sp)
    802050aa:	1000                	addi	s0,sp,32
    802050ac:	fea43023          	sd	a0,-32(s0)

00000000802050b0 <.LBB8_1>:
    802050b0:	00045517          	auipc	a0,0x45
    802050b4:	f5050513          	addi	a0,a0,-176 # 8024a000 <sbss>
    802050b8:	fea43423          	sd	a0,-24(s0)
    802050bc:	00007097          	auipc	ra,0x7
    802050c0:	d02080e7          	jalr	-766(ra) # 8020bdbe <_ZN4spin4once13Once$LT$T$GT$9call_once17hcea08ea12f78432fE>
    802050c4:	60e2                	ld	ra,24(sp)
    802050c6:	6442                	ld	s0,16(sp)
    802050c8:	6105                	addi	sp,sp,32
    802050ca:	8082                	ret

00000000802050cc <_ZN61_$LT$sbi_rt..base..Hsm$u20$as$u20$sbi_rt..base..Extension$GT$12extension_id17h6a7a8c63c61e302eE>:
    802050cc:	1101                	addi	sp,sp,-32
    802050ce:	ec06                	sd	ra,24(sp)
    802050d0:	e822                	sd	s0,16(sp)
    802050d2:	1000                	addi	s0,sp,32
    802050d4:	fea43423          	sd	a0,-24(s0)
    802050d8:	00485537          	lui	a0,0x485
    802050dc:	34d5051b          	addiw	a0,a0,845
    802050e0:	60e2                	ld	ra,24(sp)
    802050e2:	6442                	ld	s0,16(sp)
    802050e4:	6105                	addi	sp,sp,32
    802050e6:	8082                	ret

00000000802050e8 <_ZN6sbi_rt4base13ExtensionInfo14is_unavailable17hca1cb2f248b37c0dE>:
    802050e8:	1101                	addi	sp,sp,-32
    802050ea:	ec06                	sd	ra,24(sp)
    802050ec:	e822                	sd	s0,16(sp)
    802050ee:	1000                	addi	s0,sp,32
    802050f0:	fea43423          	sd	a0,-24(s0)
    802050f4:	6108                	ld	a0,0(a0)
    802050f6:	00153513          	seqz	a0,a0
    802050fa:	60e2                	ld	ra,24(sp)
    802050fc:	6442                	ld	s0,16(sp)
    802050fe:	6105                	addi	sp,sp,32
    80205100:	8082                	ret

0000000080205102 <_ZN11hypocaust_210page_table18translate_guest_va17h6fe043bb42fed1f9E>:
    80205102:	7119                	addi	sp,sp,-128
    80205104:	fc86                	sd	ra,120(sp)
    80205106:	f8a2                	sd	s0,112(sp)
    80205108:	0100                	addi	s0,sp,128
    8020510a:	f8d43423          	sd	a3,-120(s0)
    8020510e:	86b2                	mv	a3,a2
    80205110:	f8843603          	ld	a2,-120(s0)
    80205114:	f8d43823          	sd	a3,-112(s0)
    80205118:	86ae                	mv	a3,a1
    8020511a:	f9043583          	ld	a1,-112(s0)
    8020511e:	f8d43c23          	sd	a3,-104(s0)
    80205122:	86aa                	mv	a3,a0
    80205124:	f9843503          	ld	a0,-104(s0)
    80205128:	fad43023          	sd	a3,-96(s0)
    8020512c:	faa43823          	sd	a0,-80(s0)
    80205130:	feb43023          	sd	a1,-32(s0)
    80205134:	fec43423          	sd	a2,-24(s0)
    80205138:	fb040513          	addi	a0,s0,-80
    8020513c:	fca43c23          	sd	a0,-40(s0)
    80205140:	fd843683          	ld	a3,-40(s0)
    80205144:	fb840513          	addi	a0,s0,-72
    80205148:	faa43423          	sd	a0,-88(s0)
    8020514c:	00006097          	auipc	ra,0x6
    80205150:	792080e7          	jalr	1938(ra) # 8020b8de <_ZN99_$LT$hypocaust_2..page_table..sv39..PageTableSv39$u20$as$u20$hypocaust_2..page_table..PageTable$GT$15walk_page_table17hbfb14ae4ace960b9E>
    80205154:	fa043503          	ld	a0,-96(s0)
    80205158:	fa843583          	ld	a1,-88(s0)
    8020515c:	fffff097          	auipc	ra,0xfffff
    80205160:	b56080e7          	jalr	-1194(ra) # 80203cb2 <_ZN4core6option15Option$LT$T$GT$3map17h5ab0cf9bd0ff2b1fE>
    80205164:	70e6                	ld	ra,120(sp)
    80205166:	7446                	ld	s0,112(sp)
    80205168:	6109                	addi	sp,sp,128
    8020516a:	8082                	ret

000000008020516c <_ZN11hypocaust_210page_table18translate_guest_va28_$u7b$$u7b$closure$u7d$$u7d$17hd71cefb9bd4c0c6aE>:
    8020516c:	7179                	addi	sp,sp,-48
    8020516e:	f406                	sd	ra,40(sp)
    80205170:	f022                	sd	s0,32(sp)
    80205172:	1800                	addi	s0,sp,48
    80205174:	fcb43823          	sd	a1,-48(s0)
    80205178:	85aa                	mv	a1,a0
    8020517a:	fd043503          	ld	a0,-48(s0)
    8020517e:	fcb43c23          	sd	a1,-40(s0)
    80205182:	fea43023          	sd	a0,-32(s0)
    80205186:	618c                	ld	a1,0(a1)
    80205188:	618c                	ld	a1,0(a1)
    8020518a:	00008097          	auipc	ra,0x8
    8020518e:	a0a080e7          	jalr	-1526(ra) # 8020cb94 <_ZN11hypocaust_25guest4pmap7gpa2hpa17h5dec0bc5377d5e42E>
    80205192:	fea43423          	sd	a0,-24(s0)
    80205196:	00017097          	auipc	ra,0x17
    8020519a:	7f4080e7          	jalr	2036(ra) # 8021c98a <_ZN4core3ptr4read17he2c42e339169529eE>
    8020519e:	70a2                	ld	ra,40(sp)
    802051a0:	7402                	ld	s0,32(sp)
    802051a2:	6145                	addi	sp,sp,48
    802051a4:	8082                	ret

00000000802051a6 <_ZN11hypocaust_210page_table18translate_guest_va28_$u7b$$u7b$closure$u7d$$u7d$17h477df4efd4ebf107E>:
    802051a6:	7175                	addi	sp,sp,-144
    802051a8:	e506                	sd	ra,136(sp)
    802051aa:	e122                	sd	s0,128(sp)
    802051ac:	0900                	addi	s0,sp,144
    802051ae:	fab43023          	sd	a1,-96(s0)
    802051b2:	faa43423          	sd	a0,-88(s0)
    802051b6:	00858513          	addi	a0,a1,8
    802051ba:	faa43823          	sd	a0,-80(s0)
    802051be:	ffffe097          	auipc	ra,0xffffe
    802051c2:	b8e080e7          	jalr	-1138(ra) # 80202d4c <_ZN5alloc3vec16Vec$LT$T$C$A$GT$3len17hea010309df287bb1E>
    802051c6:	fff50593          	addi	a1,a0,-1 # 484fff <.Lline_table_start0+0x40aef6>
    802051ca:	fab43c23          	sd	a1,-72(s0)
    802051ce:	4581                	li	a1,0
    802051d0:	04b50463          	beq	a0,a1,80205218 <.LBB2_8>
    802051d4:	a009                	j	802051d6 <_ZN11hypocaust_210page_table18translate_guest_va28_$u7b$$u7b$closure$u7d$$u7d$17h477df4efd4ebf107E+0x30>
    802051d6:	fb843583          	ld	a1,-72(s0)
    802051da:	fb043503          	ld	a0,-80(s0)

00000000802051de <.LBB2_7>:
    802051de:	0002c617          	auipc	a2,0x2c
    802051e2:	3da60613          	addi	a2,a2,986 # 802315b8 <.L__unnamed_1>
    802051e6:	ffffe097          	auipc	ra,0xffffe
    802051ea:	0a8080e7          	jalr	168(ra) # 8020328e <_ZN81_$LT$alloc..vec..Vec$LT$T$C$A$GT$$u20$as$u20$core..ops..index..Index$LT$I$GT$$GT$5index17h77f0c7ffa0d3a71bE>
    802051ee:	85aa                	mv	a1,a0
    802051f0:	fa043503          	ld	a0,-96(s0)
    802051f4:	658c                	ld	a1,8(a1)
    802051f6:	fcb43023          	sd	a1,-64(s0)
    802051fa:	0521                	addi	a0,a0,8
    802051fc:	f8a43823          	sd	a0,-112(s0)
    80205200:	ffffe097          	auipc	ra,0xffffe
    80205204:	b4c080e7          	jalr	-1204(ra) # 80202d4c <_ZN5alloc3vec16Vec$LT$T$C$A$GT$3len17hea010309df287bb1E>
    80205208:	fff50593          	addi	a1,a0,-1
    8020520c:	f8b43c23          	sd	a1,-104(s0)
    80205210:	4581                	li	a1,0
    80205212:	06b50363          	beq	a0,a1,80205278 <.LBB2_11>
    80205216:	a005                	j	80205236 <.LBB2_9+0x16>

0000000080205218 <.LBB2_8>:
    80205218:	0002c517          	auipc	a0,0x2c
    8020521c:	37850513          	addi	a0,a0,888 # 80231590 <str.0>

0000000080205220 <.LBB2_9>:
    80205220:	0002c617          	auipc	a2,0x2c
    80205224:	35060613          	addi	a2,a2,848 # 80231570 <.L__unnamed_2>
    80205228:	02100593          	li	a1,33
    8020522c:	00028097          	auipc	ra,0x28
    80205230:	784080e7          	jalr	1924(ra) # 8022d9b0 <_ZN4core9panicking5panic17h0ed902ae04a4e669E>
    80205234:	0000                	unimp
    80205236:	f9843583          	ld	a1,-104(s0)
    8020523a:	f9043503          	ld	a0,-112(s0)

000000008020523e <.LBB2_10>:
    8020523e:	0002c617          	auipc	a2,0x2c
    80205242:	3aa60613          	addi	a2,a2,938 # 802315e8 <.L__unnamed_3>
    80205246:	ffffe097          	auipc	ra,0xffffe
    8020524a:	048080e7          	jalr	72(ra) # 8020328e <_ZN81_$LT$alloc..vec..Vec$LT$T$C$A$GT$$u20$as$u20$core..ops..index..Index$LT$I$GT$$GT$5index17h77f0c7ffa0d3a71bE>
    8020524e:	85aa                	mv	a1,a0
    80205250:	fa043503          	ld	a0,-96(s0)
    80205254:	618c                	ld	a1,0(a1)
    80205256:	f6b43c23          	sd	a1,-136(s0)
    8020525a:	0521                	addi	a0,a0,8
    8020525c:	f8a43023          	sd	a0,-128(s0)
    80205260:	ffffe097          	auipc	ra,0xffffe
    80205264:	aec080e7          	jalr	-1300(ra) # 80202d4c <_ZN5alloc3vec16Vec$LT$T$C$A$GT$3len17hea010309df287bb1E>
    80205268:	fff50593          	addi	a1,a0,-1
    8020526c:	f8b43423          	sd	a1,-120(s0)
    80205270:	4581                	li	a1,0
    80205272:	08b50a63          	beq	a0,a1,80205306 <.LBB2_14>
    80205276:	a005                	j	80205296 <.LBB2_12+0x16>

0000000080205278 <.LBB2_11>:
    80205278:	0002c517          	auipc	a0,0x2c
    8020527c:	31850513          	addi	a0,a0,792 # 80231590 <str.0>

0000000080205280 <.LBB2_12>:
    80205280:	0002c617          	auipc	a2,0x2c
    80205284:	35060613          	addi	a2,a2,848 # 802315d0 <.L__unnamed_4>
    80205288:	02100593          	li	a1,33
    8020528c:	00028097          	auipc	ra,0x28
    80205290:	724080e7          	jalr	1828(ra) # 8022d9b0 <_ZN4core9panicking5panic17h0ed902ae04a4e669E>
    80205294:	0000                	unimp
    80205296:	f8843583          	ld	a1,-120(s0)
    8020529a:	f8043503          	ld	a0,-128(s0)

000000008020529e <.LBB2_13>:
    8020529e:	0002c617          	auipc	a2,0x2c
    802052a2:	37a60613          	addi	a2,a2,890 # 80231618 <.L__unnamed_5>
    802052a6:	ffffe097          	auipc	ra,0xffffe
    802052aa:	fe8080e7          	jalr	-24(ra) # 8020328e <_ZN81_$LT$alloc..vec..Vec$LT$T$C$A$GT$$u20$as$u20$core..ops..index..Index$LT$I$GT$$GT$5index17h77f0c7ffa0d3a71bE>
    802052ae:	fa043703          	ld	a4,-96(s0)
    802052b2:	f7843683          	ld	a3,-136(s0)
    802052b6:	fa843583          	ld	a1,-88(s0)
    802052ba:	01050503          	lb	a0,16(a0)
    802052be:	6310                	ld	a2,0(a4)
    802052c0:	6f1c                	ld	a5,24(a4)
    802052c2:	fef43023          	sd	a5,-32(s0)
    802052c6:	6b1c                	ld	a5,16(a4)
    802052c8:	fcf43c23          	sd	a5,-40(s0)
    802052cc:	671c                	ld	a5,8(a4)
    802052ce:	fcf43823          	sd	a5,-48(s0)
    802052d2:	6318                	ld	a4,0(a4)
    802052d4:	fce43423          	sd	a4,-56(s0)
    802052d8:	fc043703          	ld	a4,-64(s0)
    802052dc:	f198                	sd	a4,32(a1)
    802052de:	f594                	sd	a3,40(a1)
